;******************************************************************************
;* MSP430 C/C++ Codegen                                       PC v15.12.3.LTS *
;* Date/Time created: Mon Feb 12 16:50:51 2018                                *
;******************************************************************************
	.compiler_opts --abi=eabi --diag_wrap=off --hll_source=on --mem_model:code=small --mem_model:data=small --object_format=elf --silicon_errata=CPU21 --silicon_errata=CPU22 --silicon_errata=CPU40 --silicon_version=mspx --symdebug:dwarf --symdebug:dwarf_version=3 

$C$DW$CU	.dwtag  DW_TAG_compile_unit
	.dwattr $C$DW$CU, DW_AT_name("../Hardware/uart.c")
	.dwattr $C$DW$CU, DW_AT_producer("TI MSP430 C/C++ Codegen PC v15.12.3.LTS Copyright (c) 2003-2015 Texas Instruments Incorporated")
	.dwattr $C$DW$CU, DW_AT_TI_version(0x01)
	.dwattr $C$DW$CU, DW_AT_comp_dir("H:\SVN\admont_demo\D8101A\40_Implementation\ADMONT 8101A Demo\Debug")
;	Interrupt vector table mappings
	.intvec	".int50",	USCI_A0_ISR

$C$DW$1	.dwtag  DW_TAG_subprogram
	.dwattr $C$DW$1, DW_AT_name("GPIO_setAsPeripheralModuleFunctionInputPin")
	.dwattr $C$DW$1, DW_AT_TI_symbol_name("GPIO_setAsPeripheralModuleFunctionInputPin")
	.dwattr $C$DW$1, DW_AT_declaration
	.dwattr $C$DW$1, DW_AT_external
	.dwattr $C$DW$1, DW_AT_decl_file("H:/SVN/admont_demo/D8101A/40_Implementation/ADMONT 8101A Demo/driverlib/MSP430FR2xx_4xx/gpio.h")
	.dwattr $C$DW$1, DW_AT_decl_line(0x18c)
	.dwattr $C$DW$1, DW_AT_decl_column(0x0d)
$C$DW$2	.dwtag  DW_TAG_formal_parameter
	.dwattr $C$DW$2, DW_AT_type(*$C$DW$T$24)

$C$DW$3	.dwtag  DW_TAG_formal_parameter
	.dwattr $C$DW$3, DW_AT_type(*$C$DW$T$22)

$C$DW$4	.dwtag  DW_TAG_formal_parameter
	.dwattr $C$DW$4, DW_AT_type(*$C$DW$T$24)

	.dwendtag $C$DW$1


$C$DW$5	.dwtag  DW_TAG_subprogram
	.dwattr $C$DW$5, DW_AT_name("EUSCI_A_UART_init")
	.dwattr $C$DW$5, DW_AT_TI_symbol_name("EUSCI_A_UART_init")
	.dwattr $C$DW$5, DW_AT_type(*$C$DW$T$111)
	.dwattr $C$DW$5, DW_AT_declaration
	.dwattr $C$DW$5, DW_AT_external
	.dwattr $C$DW$5, DW_AT_decl_file("H:/SVN/admont_demo/D8101A/40_Implementation/ADMONT 8101A Demo/driverlib/MSP430FR2xx_4xx/eusci_a_uart.h")
	.dwattr $C$DW$5, DW_AT_decl_line(0x112)
	.dwattr $C$DW$5, DW_AT_decl_column(0x0d)
$C$DW$6	.dwtag  DW_TAG_formal_parameter
	.dwattr $C$DW$6, DW_AT_type(*$C$DW$T$22)

$C$DW$7	.dwtag  DW_TAG_formal_parameter
	.dwattr $C$DW$7, DW_AT_type(*$C$DW$T$34)

	.dwendtag $C$DW$5


$C$DW$8	.dwtag  DW_TAG_subprogram
	.dwattr $C$DW$8, DW_AT_name("EUSCI_A_UART_receiveData")
	.dwattr $C$DW$8, DW_AT_TI_symbol_name("EUSCI_A_UART_receiveData")
	.dwattr $C$DW$8, DW_AT_type(*$C$DW$T$24)
	.dwattr $C$DW$8, DW_AT_declaration
	.dwattr $C$DW$8, DW_AT_external
	.dwattr $C$DW$8, DW_AT_decl_file("H:/SVN/admont_demo/D8101A/40_Implementation/ADMONT 8101A Demo/driverlib/MSP430FR2xx_4xx/eusci_a_uart.h")
	.dwattr $C$DW$8, DW_AT_decl_line(0x138)
	.dwattr $C$DW$8, DW_AT_decl_column(0x10)
$C$DW$9	.dwtag  DW_TAG_formal_parameter
	.dwattr $C$DW$9, DW_AT_type(*$C$DW$T$22)

	.dwendtag $C$DW$8


$C$DW$10	.dwtag  DW_TAG_subprogram
	.dwattr $C$DW$10, DW_AT_name("EUSCI_A_UART_enableInterrupt")
	.dwattr $C$DW$10, DW_AT_TI_symbol_name("EUSCI_A_UART_enableInterrupt")
	.dwattr $C$DW$10, DW_AT_declaration
	.dwattr $C$DW$10, DW_AT_external
	.dwattr $C$DW$10, DW_AT_decl_file("H:/SVN/admont_demo/D8101A/40_Implementation/ADMONT 8101A Demo/driverlib/MSP430FR2xx_4xx/eusci_a_uart.h")
	.dwattr $C$DW$10, DW_AT_decl_line(0x156)
	.dwattr $C$DW$10, DW_AT_decl_column(0x0d)
$C$DW$11	.dwtag  DW_TAG_formal_parameter
	.dwattr $C$DW$11, DW_AT_type(*$C$DW$T$22)

$C$DW$12	.dwtag  DW_TAG_formal_parameter
	.dwattr $C$DW$12, DW_AT_type(*$C$DW$T$24)

	.dwendtag $C$DW$10


$C$DW$13	.dwtag  DW_TAG_subprogram
	.dwattr $C$DW$13, DW_AT_name("EUSCI_A_UART_clearInterrupt")
	.dwattr $C$DW$13, DW_AT_TI_symbol_name("EUSCI_A_UART_clearInterrupt")
	.dwattr $C$DW$13, DW_AT_declaration
	.dwattr $C$DW$13, DW_AT_external
	.dwattr $C$DW$13, DW_AT_decl_file("H:/SVN/admont_demo/D8101A/40_Implementation/ADMONT 8101A Demo/driverlib/MSP430FR2xx_4xx/eusci_a_uart.h")
	.dwattr $C$DW$13, DW_AT_decl_line(0x1a8)
	.dwattr $C$DW$13, DW_AT_decl_column(0x0d)
$C$DW$14	.dwtag  DW_TAG_formal_parameter
	.dwattr $C$DW$14, DW_AT_type(*$C$DW$T$22)

$C$DW$15	.dwtag  DW_TAG_formal_parameter
	.dwattr $C$DW$15, DW_AT_type(*$C$DW$T$24)

	.dwendtag $C$DW$13


$C$DW$16	.dwtag  DW_TAG_subprogram
	.dwattr $C$DW$16, DW_AT_name("EUSCI_A_UART_enable")
	.dwattr $C$DW$16, DW_AT_TI_symbol_name("EUSCI_A_UART_enable")
	.dwattr $C$DW$16, DW_AT_declaration
	.dwattr $C$DW$16, DW_AT_external
	.dwattr $C$DW$16, DW_AT_decl_file("H:/SVN/admont_demo/D8101A/40_Implementation/ADMONT 8101A Demo/driverlib/MSP430FR2xx_4xx/eusci_a_uart.h")
	.dwattr $C$DW$16, DW_AT_decl_line(0x1b8)
	.dwattr $C$DW$16, DW_AT_decl_column(0x0d)
$C$DW$17	.dwtag  DW_TAG_formal_parameter
	.dwattr $C$DW$17, DW_AT_type(*$C$DW$T$22)

	.dwendtag $C$DW$16


$C$DW$18	.dwtag  DW_TAG_subprogram
	.dwattr $C$DW$18, DW_AT_name("EUSCI_A_UART_disable")
	.dwattr $C$DW$18, DW_AT_TI_symbol_name("EUSCI_A_UART_disable")
	.dwattr $C$DW$18, DW_AT_declaration
	.dwattr $C$DW$18, DW_AT_external
	.dwattr $C$DW$18, DW_AT_decl_file("H:/SVN/admont_demo/D8101A/40_Implementation/ADMONT 8101A Demo/driverlib/MSP430FR2xx_4xx/eusci_a_uart.h")
	.dwattr $C$DW$18, DW_AT_decl_line(0x1c7)
	.dwattr $C$DW$18, DW_AT_decl_column(0x0d)
$C$DW$19	.dwtag  DW_TAG_formal_parameter
	.dwattr $C$DW$19, DW_AT_type(*$C$DW$T$22)

	.dwendtag $C$DW$18

$C$DW$20	.dwtag  DW_TAG_variable
	.dwattr $C$DW$20, DW_AT_name("PASEL0_L")
	.dwattr $C$DW$20, DW_AT_TI_symbol_name("PASEL0_L")
	.dwattr $C$DW$20, DW_AT_type(*$C$DW$T$62)
	.dwattr $C$DW$20, DW_AT_declaration
	.dwattr $C$DW$20, DW_AT_external
	.dwattr $C$DW$20, DW_AT_decl_file("C:\ti\ccsv6\ccs_base\msp430\include\msp430fr4133.h")
	.dwattr $C$DW$20, DW_AT_decl_line(0x6c1)
	.dwattr $C$DW$20, DW_AT_decl_column(0x01)

$C$DW$21	.dwtag  DW_TAG_variable
	.dwattr $C$DW$21, DW_AT_name("UCA0TXBUF")
	.dwattr $C$DW$21, DW_AT_TI_symbol_name("UCA0TXBUF")
	.dwattr $C$DW$21, DW_AT_type(*$C$DW$T$87)
	.dwattr $C$DW$21, DW_AT_declaration
	.dwattr $C$DW$21, DW_AT_external
	.dwattr $C$DW$21, DW_AT_decl_file("C:\ti\ccsv6\ccs_base\msp430\include\msp430fr4133.h")
	.dwattr $C$DW$21, DW_AT_decl_line(0x9c8)
	.dwattr $C$DW$21, DW_AT_decl_column(0x01)

$C$DW$22	.dwtag  DW_TAG_variable
	.dwattr $C$DW$22, DW_AT_name("UCA0IFG")
	.dwattr $C$DW$22, DW_AT_TI_symbol_name("UCA0IFG")
	.dwattr $C$DW$22, DW_AT_type(*$C$DW$T$87)
	.dwattr $C$DW$22, DW_AT_declaration
	.dwattr $C$DW$22, DW_AT_external
	.dwattr $C$DW$22, DW_AT_decl_file("C:\ti\ccsv6\ccs_base\msp430\include\msp430fr4133.h")
	.dwattr $C$DW$22, DW_AT_decl_line(0x9d4)
	.dwattr $C$DW$22, DW_AT_decl_column(0x01)

	.global	rx_data
	.data
	.align	1
	.elfsym	rx_data,SYM_SIZE(1)
rx_data:
	.bits	0,8			; rx_data @ 0

$C$DW$23	.dwtag  DW_TAG_variable
	.dwattr $C$DW$23, DW_AT_name("rx_data")
	.dwattr $C$DW$23, DW_AT_TI_symbol_name("rx_data")
	.dwattr $C$DW$23, DW_AT_location[DW_OP_addr rx_data]
	.dwattr $C$DW$23, DW_AT_type(*$C$DW$T$46)
	.dwattr $C$DW$23, DW_AT_external
	.dwattr $C$DW$23, DW_AT_decl_file("../Hardware/uart.c")
	.dwattr $C$DW$23, DW_AT_decl_line(0x41)
	.dwattr $C$DW$23, DW_AT_decl_column(0x07)

	.global	rx_done
	.data
	.align	1
	.elfsym	rx_done,SYM_SIZE(1)
rx_done:
	.bits	0,8			; rx_done @ 0

$C$DW$24	.dwtag  DW_TAG_variable
	.dwattr $C$DW$24, DW_AT_name("rx_done")
	.dwattr $C$DW$24, DW_AT_TI_symbol_name("rx_done")
	.dwattr $C$DW$24, DW_AT_location[DW_OP_addr rx_done]
	.dwattr $C$DW$24, DW_AT_type(*$C$DW$T$46)
	.dwattr $C$DW$24, DW_AT_external
	.dwattr $C$DW$24, DW_AT_decl_file("../Hardware/uart.c")
	.dwattr $C$DW$24, DW_AT_decl_line(0x42)
	.dwattr $C$DW$24, DW_AT_decl_column(0x07)

$C$DW$25	.dwtag  DW_TAG_variable
	.dwattr $C$DW$25, DW_AT_name("uartBuffer")
	.dwattr $C$DW$25, DW_AT_TI_symbol_name("uartBuffer")
	.dwattr $C$DW$25, DW_AT_type(*$C$DW$T$110)
	.dwattr $C$DW$25, DW_AT_declaration
	.dwattr $C$DW$25, DW_AT_external
	.dwattr $C$DW$25, DW_AT_decl_file("../Hardware/uart.c")
	.dwattr $C$DW$25, DW_AT_decl_line(0x101)
	.dwattr $C$DW$25, DW_AT_decl_column(0x0d)

$C$DW$26	.dwtag  DW_TAG_variable
	.dwattr $C$DW$26, DW_AT_name("uartCount")
	.dwattr $C$DW$26, DW_AT_TI_symbol_name("uartCount")
	.dwattr $C$DW$26, DW_AT_type(*$C$DW$T$73)
	.dwattr $C$DW$26, DW_AT_declaration
	.dwattr $C$DW$26, DW_AT_external
	.dwattr $C$DW$26, DW_AT_decl_file("../Hardware/uart.c")
	.dwattr $C$DW$26, DW_AT_decl_line(0x102)
	.dwattr $C$DW$26, DW_AT_decl_column(0x17)

$C$DW$27	.dwtag  DW_TAG_variable
	.dwattr $C$DW$27, DW_AT_name("newUartCommand")
	.dwattr $C$DW$27, DW_AT_TI_symbol_name("newUartCommand")
	.dwattr $C$DW$27, DW_AT_type(*$C$DW$T$73)
	.dwattr $C$DW$27, DW_AT_declaration
	.dwattr $C$DW$27, DW_AT_external
	.dwattr $C$DW$27, DW_AT_decl_file("../Hardware/uart.c")
	.dwattr $C$DW$27, DW_AT_decl_line(0x103)
	.dwattr $C$DW$27, DW_AT_decl_column(0x17)

	.sect	".const:$P$T0$1"
	.clink
	.align	2
	.elfsym	$P$T0$1,SYM_SIZE(16)
$P$T0$1:
	.bits	128,8			; $P$T0$1.selectClockSource @ 0
	.bits	0,8
	.bits	4,16			; $P$T0$1.clockPrescalar @ 16
	.bits	8,8			; $P$T0$1.firstModReg @ 32
	.bits	238,8			; $P$T0$1.secondModReg @ 40
	.bits	0,8			; $P$T0$1.parity @ 48
	.bits	0,8
	.bits	0,16			; $P$T0$1.msborLsbFirst @ 64
	.bits	0,16			; $P$T0$1.numberofStopBits @ 80
	.bits	0,16			; $P$T0$1.uartMode @ 96
	.bits	1,8			; $P$T0$1.overSampling @ 112
	.bits	0,8

$C$DW$28	.dwtag  DW_TAG_variable
	.dwattr $C$DW$28, DW_AT_name("$P$T0$1")
	.dwattr $C$DW$28, DW_AT_TI_symbol_name("$P$T0$1")
	.dwattr $C$DW$28, DW_AT_type(*$C$DW$T$33)
	.dwattr $C$DW$28, DW_AT_location[DW_OP_addr $P$T0$1]
	.dwattr $C$DW$28, DW_AT_decl_file("../Hardware/uart.c")
	.dwattr $C$DW$28, DW_AT_decl_line(0xcf)
	.dwattr $C$DW$28, DW_AT_decl_column(0x19)

	.data
	.align	1
	.elfsym	bufferCount$2,SYM_SIZE(1)
bufferCount$2:
	.bits	0,8			; bufferCount$2 @ 0

	.data
	.align	1
	.elfsym	temp0$3,SYM_SIZE(1)
temp0$3:
	.bits	0,8			; temp0$3 @ 0

	.data
	.align	1
	.elfsym	temp1$4,SYM_SIZE(1)
temp1$4:
	.bits	0,8			; temp1$4 @ 0

;	C:\ti\ccsv6\tools\compiler\msp430_15.12.3.LTS\bin\opt430.exe C:\\Users\\jgamez\\AppData\\Local\\Temp\\062562 C:\\Users\\jgamez\\AppData\\Local\\Temp\\062564 
	.sect	".text:UartNibble2Ascii"
	.clink
	.global	UartNibble2Ascii

$C$DW$29	.dwtag  DW_TAG_subprogram
	.dwattr $C$DW$29, DW_AT_name("UartNibble2Ascii")
	.dwattr $C$DW$29, DW_AT_low_pc(UartNibble2Ascii)
	.dwattr $C$DW$29, DW_AT_high_pc(0x00)
	.dwattr $C$DW$29, DW_AT_TI_symbol_name("UartNibble2Ascii")
	.dwattr $C$DW$29, DW_AT_external
	.dwattr $C$DW$29, DW_AT_type(*$C$DW$T$46)
	.dwattr $C$DW$29, DW_AT_TI_begin_file("../Hardware/uart.c")
	.dwattr $C$DW$29, DW_AT_TI_begin_line(0x58)
	.dwattr $C$DW$29, DW_AT_TI_begin_column(0x01)
	.dwattr $C$DW$29, DW_AT_decl_file("../Hardware/uart.c")
	.dwattr $C$DW$29, DW_AT_decl_line(0x58)
	.dwattr $C$DW$29, DW_AT_decl_column(0x01)
	.dwattr $C$DW$29, DW_AT_TI_max_frame_size(0x02)
	.dwpsn	file "../Hardware/uart.c",line 89,column 1,is_stmt,address UartNibble2Ascii,isa 0

	.dwfde $C$DW$CIE, UartNibble2Ascii
$C$DW$30	.dwtag  DW_TAG_formal_parameter
	.dwattr $C$DW$30, DW_AT_name("anibble")
	.dwattr $C$DW$30, DW_AT_TI_symbol_name("anibble")
	.dwattr $C$DW$30, DW_AT_type(*$C$DW$T$46)
	.dwattr $C$DW$30, DW_AT_location[DW_OP_reg12]


;*****************************************************************************
;* FUNCTION NAME: UartNibble2Ascii                                           *
;*                                                                           *
;*   Regs Modified     : SP,SR,r12                                           *
;*   Regs Used         : SP,SR,r12                                           *
;*   Local Frame Size  : 0 Args + 0 Auto + 0 Save = 0 byte                   *
;*****************************************************************************
UartNibble2Ascii:
;* --------------------------------------------------------------------------*
;* r12   assigned to ascii_out
$C$DW$31	.dwtag  DW_TAG_variable
	.dwattr $C$DW$31, DW_AT_name("ascii_out")
	.dwattr $C$DW$31, DW_AT_TI_symbol_name("ascii_out")
	.dwattr $C$DW$31, DW_AT_type(*$C$DW$T$46)
	.dwattr $C$DW$31, DW_AT_location[DW_OP_reg12]

	.dwcfi	cfa_offset, 2
	.dwcfi	save_reg_to_mem, 16, -2
	.dwpsn	file "../Hardware/uart.c",line 90,column 24,is_stmt,isa 0
        CMP.B     #10,r12               ; [] |90| 
        JLO       $C$L1                 ; [] |90| 
                                          ; [] |90| 
;* --------------------------------------------------------------------------*
	.dwpsn	file "../Hardware/uart.c",line 94,column 9,is_stmt,isa 0
        ADD.B     #7,r12                ; [] |94| 
;* --------------------------------------------------------------------------*
$C$L1:    
	.dwpsn	file "../Hardware/uart.c",line 100,column 5,is_stmt,isa 0
        ADD.B     #48,r12               ; [] |100| 
$C$DW$32	.dwtag  DW_TAG_TI_branch
	.dwattr $C$DW$32, DW_AT_low_pc(0x00)
	.dwattr $C$DW$32, DW_AT_TI_return

        RET       ; [] 
        ; [] 
	.dwattr $C$DW$29, DW_AT_TI_end_file("../Hardware/uart.c")
	.dwattr $C$DW$29, DW_AT_TI_end_line(0x65)
	.dwattr $C$DW$29, DW_AT_TI_end_column(0x01)
	.dwendentry
	.dwendtag $C$DW$29

	.sect	".text:UartPutBksp"
	.clink
	.global	UartPutBksp

$C$DW$33	.dwtag  DW_TAG_subprogram
	.dwattr $C$DW$33, DW_AT_name("UartPutBksp")
	.dwattr $C$DW$33, DW_AT_low_pc(UartPutBksp)
	.dwattr $C$DW$33, DW_AT_high_pc(0x00)
	.dwattr $C$DW$33, DW_AT_TI_symbol_name("UartPutBksp")
	.dwattr $C$DW$33, DW_AT_external
	.dwattr $C$DW$33, DW_AT_TI_begin_file("../Hardware/uart.c")
	.dwattr $C$DW$33, DW_AT_TI_begin_line(0x6c)
	.dwattr $C$DW$33, DW_AT_TI_begin_column(0x01)
	.dwattr $C$DW$33, DW_AT_decl_file("../Hardware/uart.c")
	.dwattr $C$DW$33, DW_AT_decl_line(0x6c)
	.dwattr $C$DW$33, DW_AT_decl_column(0x01)
	.dwattr $C$DW$33, DW_AT_TI_max_frame_size(0x02)
	.dwpsn	file "../Hardware/uart.c",line 109,column 1,is_stmt,address UartPutBksp,isa 0

	.dwfde $C$DW$CIE, UartPutBksp

;*****************************************************************************
;* FUNCTION NAME: UartPutBksp                                                *
;*                                                                           *
;*   Regs Modified     : SR,r11,r12,r13,r14,r15                              *
;*   Regs Used         : SR,r11,r12,r13,r14,r15                              *
;*   Local Frame Size  : 0 Args + 0 Auto + 0 Save = 0 byte                   *
;*****************************************************************************
UartPutBksp:
;* --------------------------------------------------------------------------*
	.dwcfi	cfa_offset, 2
	.dwcfi	save_reg_to_mem, 16, -2
	.dwpsn	file "../Hardware/uart.c",line 110,column 5,is_stmt,isa 0
        MOV.B     #8,r12                ; [] |110| 
$C$DW$34	.dwtag  DW_TAG_TI_branch
	.dwattr $C$DW$34, DW_AT_low_pc(0x00)
	.dwattr $C$DW$34, DW_AT_name("UartPutChar")
	.dwattr $C$DW$34, DW_AT_TI_call

        CALL      #UartPutChar          ; [] |110| 
                                          ; [] |110| 
	.dwpsn	file "../Hardware/uart.c",line 111,column 5,is_stmt,isa 0
        MOV.B     #32,r12               ; [] |111| 
$C$DW$35	.dwtag  DW_TAG_TI_branch
	.dwattr $C$DW$35, DW_AT_low_pc(0x00)
	.dwattr $C$DW$35, DW_AT_name("UartPutChar")
	.dwattr $C$DW$35, DW_AT_TI_call

        CALL      #UartPutChar          ; [] |111| 
                                          ; [] |111| 
	.dwpsn	file "../Hardware/uart.c",line 112,column 5,is_stmt,isa 0
        MOV.B     #8,r12                ; [] |112| 
$C$DW$36	.dwtag  DW_TAG_TI_branch
	.dwattr $C$DW$36, DW_AT_low_pc(0x00)
	.dwattr $C$DW$36, DW_AT_name("UartPutChar")
	.dwattr $C$DW$36, DW_AT_TI_call
	.dwattr $C$DW$36, DW_AT_TI_return

        BR        #UartPutChar          ; [] |112| 
                                          ; [] |112| 
	.dwattr $C$DW$33, DW_AT_TI_end_file("../Hardware/uart.c")
	.dwattr $C$DW$33, DW_AT_TI_end_line(0x71)
	.dwattr $C$DW$33, DW_AT_TI_end_column(0x01)
	.dwendentry
	.dwendtag $C$DW$33

	.sect	".text:UartPutByte"
	.clink
	.global	UartPutByte

$C$DW$37	.dwtag  DW_TAG_subprogram
	.dwattr $C$DW$37, DW_AT_name("UartPutByte")
	.dwattr $C$DW$37, DW_AT_low_pc(UartPutByte)
	.dwattr $C$DW$37, DW_AT_high_pc(0x00)
	.dwattr $C$DW$37, DW_AT_TI_symbol_name("UartPutByte")
	.dwattr $C$DW$37, DW_AT_external
	.dwattr $C$DW$37, DW_AT_TI_begin_file("../Hardware/uart.c")
	.dwattr $C$DW$37, DW_AT_TI_begin_line(0x78)
	.dwattr $C$DW$37, DW_AT_TI_begin_column(0x01)
	.dwattr $C$DW$37, DW_AT_decl_file("../Hardware/uart.c")
	.dwattr $C$DW$37, DW_AT_decl_line(0x78)
	.dwattr $C$DW$37, DW_AT_decl_column(0x01)
	.dwattr $C$DW$37, DW_AT_TI_max_frame_size(0x04)
	.dwpsn	file "../Hardware/uart.c",line 121,column 1,is_stmt,address UartPutByte,isa 0

	.dwfde $C$DW$CIE, UartPutByte
$C$DW$38	.dwtag  DW_TAG_formal_parameter
	.dwattr $C$DW$38, DW_AT_name("abyte")
	.dwattr $C$DW$38, DW_AT_TI_symbol_name("abyte")
	.dwattr $C$DW$38, DW_AT_type(*$C$DW$T$46)
	.dwattr $C$DW$38, DW_AT_location[DW_OP_reg12]


;*****************************************************************************
;* FUNCTION NAME: UartPutByte                                                *
;*                                                                           *
;*   Regs Modified     : SP,SR,r10,r11,r12,r13,r14,r15                       *
;*   Regs Used         : SP,SR,r10,r11,r12,r13,r14,r15                       *
;*   Local Frame Size  : 0 Args + 0 Auto + 2 Save = 2 byte                   *
;*****************************************************************************
UartPutByte:
;* --------------------------------------------------------------------------*
;* r10   assigned to abyte
$C$DW$39	.dwtag  DW_TAG_variable
	.dwattr $C$DW$39, DW_AT_name("abyte")
	.dwattr $C$DW$39, DW_AT_TI_symbol_name("abyte")
	.dwattr $C$DW$39, DW_AT_type(*$C$DW$T$74)
	.dwattr $C$DW$39, DW_AT_location[DW_OP_reg10]

	.dwcfi	cfa_offset, 2
	.dwcfi	save_reg_to_mem, 16, -2
        PUSHM.W   #1,r10                ; [] 
	.dwcfi	save_reg_to_mem, 10, -4
	.dwcfi	cfa_offset, 4
        MOVA      r12,r10               ; [] |121| 
	.dwpsn	file "../Hardware/uart.c",line 125,column 5,is_stmt,isa 0
        MOV.B     r10,r12               ; [] |125| 
        RRUM.W    #4,r12                ; [] |125| 
        MOV.B     r12,r12               ; [] |125| 
$C$DW$40	.dwtag  DW_TAG_TI_branch
	.dwattr $C$DW$40, DW_AT_low_pc(0x00)
	.dwattr $C$DW$40, DW_AT_name("UartNibble2Ascii")
	.dwattr $C$DW$40, DW_AT_TI_call

        CALL      #UartNibble2Ascii     ; [] |125| 
                                          ; [] |125| 
	.dwpsn	file "../Hardware/uart.c",line 126,column 5,is_stmt,isa 0
$C$DW$41	.dwtag  DW_TAG_TI_branch
	.dwattr $C$DW$41, DW_AT_low_pc(0x00)
	.dwattr $C$DW$41, DW_AT_name("UartPutChar")
	.dwattr $C$DW$41, DW_AT_TI_call

        CALL      #UartPutChar          ; [] |126| 
                                          ; [] |126| 
	.dwpsn	file "../Hardware/uart.c",line 129,column 5,is_stmt,isa 0
        MOV.W     #15,r12               ; [] |129| 
        AND.B     r10,r12               ; [] |129| 
$C$DW$42	.dwtag  DW_TAG_TI_branch
	.dwattr $C$DW$42, DW_AT_low_pc(0x00)
	.dwattr $C$DW$42, DW_AT_name("UartNibble2Ascii")
	.dwattr $C$DW$42, DW_AT_TI_call

        CALL      #UartNibble2Ascii     ; [] |129| 
                                          ; [] |129| 
	.dwpsn	file "../Hardware/uart.c",line 130,column 5,is_stmt,isa 0
$C$DW$43	.dwtag  DW_TAG_TI_branch
	.dwattr $C$DW$43, DW_AT_low_pc(0x00)
	.dwattr $C$DW$43, DW_AT_name("UartPutChar")
	.dwattr $C$DW$43, DW_AT_TI_call

        CALL      #UartPutChar          ; [] |130| 
                                          ; [] |130| 
        POPM.W    #1,r10                ; [] 
	.dwcfi	restore_reg, 10
	.dwcfi	cfa_offset, 2
$C$DW$44	.dwtag  DW_TAG_TI_branch
	.dwattr $C$DW$44, DW_AT_low_pc(0x00)
	.dwattr $C$DW$44, DW_AT_TI_return

        RET       ; [] 
        ; [] 
	.dwattr $C$DW$37, DW_AT_TI_end_file("../Hardware/uart.c")
	.dwattr $C$DW$37, DW_AT_TI_end_line(0x83)
	.dwattr $C$DW$37, DW_AT_TI_end_column(0x01)
	.dwendentry
	.dwendtag $C$DW$37

	.sect	".text:UartPutChar"
	.clink
	.global	UartPutChar

$C$DW$45	.dwtag  DW_TAG_subprogram
	.dwattr $C$DW$45, DW_AT_name("UartPutChar")
	.dwattr $C$DW$45, DW_AT_low_pc(UartPutChar)
	.dwattr $C$DW$45, DW_AT_high_pc(0x00)
	.dwattr $C$DW$45, DW_AT_TI_symbol_name("UartPutChar")
	.dwattr $C$DW$45, DW_AT_external
	.dwattr $C$DW$45, DW_AT_TI_begin_file("../Hardware/uart.c")
	.dwattr $C$DW$45, DW_AT_TI_begin_line(0x8a)
	.dwattr $C$DW$45, DW_AT_TI_begin_column(0x01)
	.dwattr $C$DW$45, DW_AT_decl_file("../Hardware/uart.c")
	.dwattr $C$DW$45, DW_AT_decl_line(0x8a)
	.dwattr $C$DW$45, DW_AT_decl_column(0x01)
	.dwattr $C$DW$45, DW_AT_TI_max_frame_size(0x02)
	.dwpsn	file "../Hardware/uart.c",line 139,column 1,is_stmt,address UartPutChar,isa 0

	.dwfde $C$DW$CIE, UartPutChar
$C$DW$46	.dwtag  DW_TAG_formal_parameter
	.dwattr $C$DW$46, DW_AT_name("tx_char")
	.dwattr $C$DW$46, DW_AT_TI_symbol_name("tx_char")
	.dwattr $C$DW$46, DW_AT_type(*$C$DW$T$46)
	.dwattr $C$DW$46, DW_AT_location[DW_OP_reg12]


;*****************************************************************************
;* FUNCTION NAME: UartPutChar                                                *
;*                                                                           *
;*   Regs Modified     : SP,SR,r12                                           *
;*   Regs Used         : SP,SR,r12                                           *
;*   Local Frame Size  : 0 Args + 0 Auto + 0 Save = 0 byte                   *
;*****************************************************************************
UartPutChar:
;* --------------------------------------------------------------------------*
;* r12   assigned to tx_char
$C$DW$47	.dwtag  DW_TAG_variable
	.dwattr $C$DW$47, DW_AT_name("tx_char")
	.dwattr $C$DW$47, DW_AT_TI_symbol_name("tx_char")
	.dwattr $C$DW$47, DW_AT_type(*$C$DW$T$74)
	.dwattr $C$DW$47, DW_AT_location[DW_OP_reg12]

	.dwcfi	cfa_offset, 2
	.dwcfi	save_reg_to_mem, 16, -2
;* --------------------------------------------------------------------------*
;*   BEGIN LOOP $C$L2
;*
;*   Loop source line                : 140
;*   Loop closing brace source line  : 140
;*   Known Minimum Trip Count        : 1
;*   Known Maximum Trip Count        : 4294967295
;*   Known Max Trip Count Factor     : 1
;* --------------------------------------------------------------------------*
$C$L2:    
	.dwpsn	file "../Hardware/uart.c",line 140,column 11,is_stmt,isa 0
        BIT.W     #2,&UCA0IFG+0         ; [] |140| 
        JEQ       $C$L2                 ; [] |140| 
                                          ; [] |140| 
;* --------------------------------------------------------------------------*
	.dwpsn	file "../Hardware/uart.c",line 142,column 5,is_stmt,isa 0
        MOV.B     r12,r12               ; [] |142| 
        MOV.W     r12,&UCA0TXBUF+0      ; [] |142| 
$C$DW$48	.dwtag  DW_TAG_TI_branch
	.dwattr $C$DW$48, DW_AT_low_pc(0x00)
	.dwattr $C$DW$48, DW_AT_TI_return

        RET       ; [] 
        ; [] 
	.dwattr $C$DW$45, DW_AT_TI_end_file("../Hardware/uart.c")
	.dwattr $C$DW$45, DW_AT_TI_end_line(0x8f)
	.dwattr $C$DW$45, DW_AT_TI_end_column(0x01)
	.dwendentry
	.dwendtag $C$DW$45

	.sect	".text:UartPutCrlf"
	.clink
	.global	UartPutCrlf

$C$DW$49	.dwtag  DW_TAG_subprogram
	.dwattr $C$DW$49, DW_AT_name("UartPutCrlf")
	.dwattr $C$DW$49, DW_AT_low_pc(UartPutCrlf)
	.dwattr $C$DW$49, DW_AT_high_pc(0x00)
	.dwattr $C$DW$49, DW_AT_TI_symbol_name("UartPutCrlf")
	.dwattr $C$DW$49, DW_AT_external
	.dwattr $C$DW$49, DW_AT_TI_begin_file("../Hardware/uart.c")
	.dwattr $C$DW$49, DW_AT_TI_begin_line(0x96)
	.dwattr $C$DW$49, DW_AT_TI_begin_column(0x01)
	.dwattr $C$DW$49, DW_AT_decl_file("../Hardware/uart.c")
	.dwattr $C$DW$49, DW_AT_decl_line(0x96)
	.dwattr $C$DW$49, DW_AT_decl_column(0x01)
	.dwattr $C$DW$49, DW_AT_TI_max_frame_size(0x02)
	.dwpsn	file "../Hardware/uart.c",line 151,column 1,is_stmt,address UartPutCrlf,isa 0

	.dwfde $C$DW$CIE, UartPutCrlf

;*****************************************************************************
;* FUNCTION NAME: UartPutCrlf                                                *
;*                                                                           *
;*   Regs Modified     : SR,r12                                              *
;*   Regs Used         : SR,r12                                              *
;*   Local Frame Size  : 0 Args + 0 Auto + 0 Save = 0 byte                   *
;*****************************************************************************
UartPutCrlf:
;* --------------------------------------------------------------------------*
	.dwcfi	cfa_offset, 2
	.dwcfi	save_reg_to_mem, 16, -2
	.dwpsn	file "../Hardware/uart.c",line 152,column 5,is_stmt,isa 0
        MOV.B     #13,r12               ; [] |152| 
$C$DW$50	.dwtag  DW_TAG_TI_branch
	.dwattr $C$DW$50, DW_AT_low_pc(0x00)
	.dwattr $C$DW$50, DW_AT_name("UartPutChar")
	.dwattr $C$DW$50, DW_AT_TI_call

        CALL      #UartPutChar          ; [] |152| 
                                          ; [] |152| 
	.dwpsn	file "../Hardware/uart.c",line 153,column 5,is_stmt,isa 0
        MOV.B     #10,r12               ; [] |153| 
$C$DW$51	.dwtag  DW_TAG_TI_branch
	.dwattr $C$DW$51, DW_AT_low_pc(0x00)
	.dwattr $C$DW$51, DW_AT_name("UartPutChar")
	.dwattr $C$DW$51, DW_AT_TI_call
	.dwattr $C$DW$51, DW_AT_TI_return

        BR        #UartPutChar          ; [] |153| 
                                          ; [] |153| 
	.dwattr $C$DW$49, DW_AT_TI_end_file("../Hardware/uart.c")
	.dwattr $C$DW$49, DW_AT_TI_end_line(0x9a)
	.dwattr $C$DW$49, DW_AT_TI_end_column(0x01)
	.dwendentry
	.dwendtag $C$DW$49

	.sect	".text:UartPutSpace"
	.clink
	.global	UartPutSpace

$C$DW$52	.dwtag  DW_TAG_subprogram
	.dwattr $C$DW$52, DW_AT_name("UartPutSpace")
	.dwattr $C$DW$52, DW_AT_low_pc(UartPutSpace)
	.dwattr $C$DW$52, DW_AT_high_pc(0x00)
	.dwattr $C$DW$52, DW_AT_TI_symbol_name("UartPutSpace")
	.dwattr $C$DW$52, DW_AT_external
	.dwattr $C$DW$52, DW_AT_TI_begin_file("../Hardware/uart.c")
	.dwattr $C$DW$52, DW_AT_TI_begin_line(0xa1)
	.dwattr $C$DW$52, DW_AT_TI_begin_column(0x01)
	.dwattr $C$DW$52, DW_AT_decl_file("../Hardware/uart.c")
	.dwattr $C$DW$52, DW_AT_decl_line(0xa1)
	.dwattr $C$DW$52, DW_AT_decl_column(0x01)
	.dwattr $C$DW$52, DW_AT_TI_max_frame_size(0x02)
	.dwpsn	file "../Hardware/uart.c",line 162,column 1,is_stmt,address UartPutSpace,isa 0

	.dwfde $C$DW$CIE, UartPutSpace

;*****************************************************************************
;* FUNCTION NAME: UartPutSpace                                               *
;*                                                                           *
;*   Regs Modified     : SR,r12                                              *
;*   Regs Used         : SR,r12                                              *
;*   Local Frame Size  : 0 Args + 0 Auto + 0 Save = 0 byte                   *
;*****************************************************************************
UartPutSpace:
;* --------------------------------------------------------------------------*
	.dwcfi	cfa_offset, 2
	.dwcfi	save_reg_to_mem, 16, -2
	.dwpsn	file "../Hardware/uart.c",line 163,column 5,is_stmt,isa 0
        MOV.B     #32,r12               ; [] |163| 
$C$DW$53	.dwtag  DW_TAG_TI_branch
	.dwattr $C$DW$53, DW_AT_low_pc(0x00)
	.dwattr $C$DW$53, DW_AT_name("UartPutChar")
	.dwattr $C$DW$53, DW_AT_TI_call
	.dwattr $C$DW$53, DW_AT_TI_return

        BR        #UartPutChar          ; [] |163| 
                                          ; [] |163| 
	.dwattr $C$DW$52, DW_AT_TI_end_file("../Hardware/uart.c")
	.dwattr $C$DW$52, DW_AT_TI_end_line(0xa4)
	.dwattr $C$DW$52, DW_AT_TI_end_column(0x01)
	.dwendentry
	.dwendtag $C$DW$52

	.sect	".text:UartResponse"
	.clink
	.global	UartResponse

$C$DW$54	.dwtag  DW_TAG_subprogram
	.dwattr $C$DW$54, DW_AT_name("UartResponse")
	.dwattr $C$DW$54, DW_AT_low_pc(UartResponse)
	.dwattr $C$DW$54, DW_AT_high_pc(0x00)
	.dwattr $C$DW$54, DW_AT_TI_symbol_name("UartResponse")
	.dwattr $C$DW$54, DW_AT_external
	.dwattr $C$DW$54, DW_AT_TI_begin_file("../Hardware/uart.c")
	.dwattr $C$DW$54, DW_AT_TI_begin_line(0xac)
	.dwattr $C$DW$54, DW_AT_TI_begin_column(0x01)
	.dwattr $C$DW$54, DW_AT_decl_file("../Hardware/uart.c")
	.dwattr $C$DW$54, DW_AT_decl_line(0xac)
	.dwattr $C$DW$54, DW_AT_decl_column(0x01)
	.dwattr $C$DW$54, DW_AT_TI_max_frame_size(0x06)
	.dwpsn	file "../Hardware/uart.c",line 173,column 1,is_stmt,address UartResponse,isa 0

	.dwfde $C$DW$CIE, UartResponse
$C$DW$55	.dwtag  DW_TAG_formal_parameter
	.dwattr $C$DW$55, DW_AT_name("pbuf")
	.dwattr $C$DW$55, DW_AT_TI_symbol_name("pbuf")
	.dwattr $C$DW$55, DW_AT_type(*$C$DW$T$49)
	.dwattr $C$DW$55, DW_AT_location[DW_OP_reg12]

$C$DW$56	.dwtag  DW_TAG_formal_parameter
	.dwattr $C$DW$56, DW_AT_name("length")
	.dwattr $C$DW$56, DW_AT_TI_symbol_name("length")
	.dwattr $C$DW$56, DW_AT_type(*$C$DW$T$46)
	.dwattr $C$DW$56, DW_AT_location[DW_OP_reg13]


;*****************************************************************************
;* FUNCTION NAME: UartResponse                                               *
;*                                                                           *
;*   Regs Modified     : SP,SR,r9,r10,r11,r12,r13,r14,r15                    *
;*   Regs Used         : SP,SR,r9,r10,r11,r12,r13,r14,r15                    *
;*   Local Frame Size  : 0 Args + 0 Auto + 4 Save = 4 byte                   *
;*****************************************************************************
UartResponse:
;* --------------------------------------------------------------------------*
;* r9    assigned to pbuf
$C$DW$57	.dwtag  DW_TAG_variable
	.dwattr $C$DW$57, DW_AT_name("pbuf")
	.dwattr $C$DW$57, DW_AT_TI_symbol_name("pbuf")
	.dwattr $C$DW$57, DW_AT_type(*$C$DW$T$49)
	.dwattr $C$DW$57, DW_AT_location[DW_OP_reg9]

;* r10   assigned to length
$C$DW$58	.dwtag  DW_TAG_variable
	.dwattr $C$DW$58, DW_AT_name("length")
	.dwattr $C$DW$58, DW_AT_TI_symbol_name("length")
	.dwattr $C$DW$58, DW_AT_type(*$C$DW$T$46)
	.dwattr $C$DW$58, DW_AT_location[DW_OP_reg10]

	.dwcfi	cfa_offset, 2
	.dwcfi	save_reg_to_mem, 16, -2
        PUSHM.W   #2,r10                ; [] 
	.dwcfi	save_reg_to_mem, 10, -4
	.dwcfi	save_reg_to_mem, 9, -6
	.dwcfi	cfa_offset, 6
        MOVA      r13,r10               ; [] |173| 
        MOVA      r12,r9                ; [] |173| 
	.dwpsn	file "../Hardware/uart.c",line 174,column 11,is_stmt,isa 0
        TST.B     r10                   ; [] |174| 
        JEQ       $C$L4                 ; [] |174| 
                                          ; [] |174| 
;* --------------------------------------------------------------------------*
;*   BEGIN LOOP $C$L3
;*
;*   Loop source line                : 174
;*   Loop closing brace source line  : 181
;*   Known Minimum Trip Count        : 1
;*   Known Maximum Trip Count        : 4294967295
;*   Known Max Trip Count Factor     : 1
;* --------------------------------------------------------------------------*
$C$L3:    
	.dwpsn	file "../Hardware/uart.c",line 176,column 9,is_stmt,isa 0
        MOV.B     #91,r12               ; [] |176| 
$C$DW$59	.dwtag  DW_TAG_TI_branch
	.dwattr $C$DW$59, DW_AT_low_pc(0x00)
	.dwattr $C$DW$59, DW_AT_name("UartPutChar")
	.dwattr $C$DW$59, DW_AT_TI_call

        CALL      #UartPutChar          ; [] |176| 
                                          ; [] |176| 
	.dwpsn	file "../Hardware/uart.c",line 177,column 9,is_stmt,isa 0
        MOV.B     @r9+,r12              ; [] |177| 
$C$DW$60	.dwtag  DW_TAG_TI_branch
	.dwattr $C$DW$60, DW_AT_low_pc(0x00)
	.dwattr $C$DW$60, DW_AT_name("UartPutByte")
	.dwattr $C$DW$60, DW_AT_TI_call

        CALL      #UartPutByte          ; [] |177| 
                                          ; [] |177| 
	.dwpsn	file "../Hardware/uart.c",line 178,column 9,is_stmt,isa 0
        MOV.B     #93,r12               ; [] |178| 
$C$DW$61	.dwtag  DW_TAG_TI_branch
	.dwattr $C$DW$61, DW_AT_low_pc(0x00)
	.dwattr $C$DW$61, DW_AT_name("UartPutChar")
	.dwattr $C$DW$61, DW_AT_TI_call

        CALL      #UartPutChar          ; [] |178| 
                                          ; [] |178| 
	.dwpsn	file "../Hardware/uart.c",line 180,column 9,is_stmt,isa 0
        SUB.B     #1,r10                ; [] |180| 
        JNE       $C$L3                 ; [] |180| 
                                          ; [] |180| 
;* --------------------------------------------------------------------------*
$C$L4:    
	.dwpsn	file "../Hardware/uart.c",line 182,column 5,is_stmt,isa 0
$C$DW$62	.dwtag  DW_TAG_TI_branch
	.dwattr $C$DW$62, DW_AT_low_pc(0x00)
	.dwattr $C$DW$62, DW_AT_name("UartPutCrlf")
	.dwattr $C$DW$62, DW_AT_TI_call

        CALL      #UartPutCrlf          ; [] |182| 
                                          ; [] |182| 
        POPM.W    #2,r10                ; [] 
	.dwcfi	restore_reg, 9
	.dwcfi	restore_reg, 10
	.dwcfi	cfa_offset, 2
$C$DW$63	.dwtag  DW_TAG_TI_branch
	.dwattr $C$DW$63, DW_AT_low_pc(0x00)
	.dwattr $C$DW$63, DW_AT_TI_return

        RET       ; [] 
        ; [] 
	.dwattr $C$DW$54, DW_AT_TI_end_file("../Hardware/uart.c")
	.dwattr $C$DW$54, DW_AT_TI_end_line(0xb7)
	.dwattr $C$DW$54, DW_AT_TI_end_column(0x01)
	.dwendentry
	.dwendtag $C$DW$54

	.sect	".text:UartSendCString"
	.clink
	.global	UartSendCString

$C$DW$64	.dwtag  DW_TAG_subprogram
	.dwattr $C$DW$64, DW_AT_name("UartSendCString")
	.dwattr $C$DW$64, DW_AT_low_pc(UartSendCString)
	.dwattr $C$DW$64, DW_AT_high_pc(0x00)
	.dwattr $C$DW$64, DW_AT_TI_symbol_name("UartSendCString")
	.dwattr $C$DW$64, DW_AT_external
	.dwattr $C$DW$64, DW_AT_TI_begin_file("../Hardware/uart.c")
	.dwattr $C$DW$64, DW_AT_TI_begin_line(0xbf)
	.dwattr $C$DW$64, DW_AT_TI_begin_column(0x01)
	.dwattr $C$DW$64, DW_AT_decl_file("../Hardware/uart.c")
	.dwattr $C$DW$64, DW_AT_decl_line(0xbf)
	.dwattr $C$DW$64, DW_AT_decl_column(0x01)
	.dwattr $C$DW$64, DW_AT_TI_max_frame_size(0x02)
	.dwpsn	file "../Hardware/uart.c",line 192,column 1,is_stmt,address UartSendCString,isa 0

	.dwfde $C$DW$CIE, UartSendCString
$C$DW$65	.dwtag  DW_TAG_formal_parameter
	.dwattr $C$DW$65, DW_AT_name("pstr")
	.dwattr $C$DW$65, DW_AT_TI_symbol_name("pstr")
	.dwattr $C$DW$65, DW_AT_type(*$C$DW$T$52)
	.dwattr $C$DW$65, DW_AT_location[DW_OP_reg12]


;*****************************************************************************
;* FUNCTION NAME: UartSendCString                                            *
;*                                                                           *
;*   Regs Modified     : SP,SR,r12,r15                                       *
;*   Regs Used         : SP,SR,r12,r15                                       *
;*   Local Frame Size  : 0 Args + 0 Auto + 0 Save = 0 byte                   *
;*****************************************************************************
UartSendCString:
;* --------------------------------------------------------------------------*
;* r15   assigned to pstr
$C$DW$66	.dwtag  DW_TAG_variable
	.dwattr $C$DW$66, DW_AT_name("pstr")
	.dwattr $C$DW$66, DW_AT_TI_symbol_name("pstr")
	.dwattr $C$DW$66, DW_AT_type(*$C$DW$T$52)
	.dwattr $C$DW$66, DW_AT_location[DW_OP_reg15]

	.dwcfi	cfa_offset, 2
	.dwcfi	save_reg_to_mem, 16, -2
        MOVA      r12,r15               ; [] |192| 
	.dwpsn	file "../Hardware/uart.c",line 193,column 5,is_stmt,isa 0
        JMP       $C$L6                 ; [] |193| 
                                          ; [] |193| 
;* --------------------------------------------------------------------------*
$C$L5:    
	.dwpsn	file "../Hardware/uart.c",line 195,column 9,is_stmt,isa 0
        MOV.B     @r15+,r12             ; [] |195| 
$C$DW$67	.dwtag  DW_TAG_TI_branch
	.dwattr $C$DW$67, DW_AT_low_pc(0x00)
	.dwattr $C$DW$67, DW_AT_name("UartPutChar")
	.dwattr $C$DW$67, DW_AT_TI_call

        CALL      #UartPutChar          ; [] |195| 
                                          ; [] |195| 
;* --------------------------------------------------------------------------*
;*   BEGIN LOOP $C$L6
;* --------------------------------------------------------------------------*
$C$L6:    
	.dwpsn	file "../Hardware/uart.c",line 193,column 11,is_stmt,isa 0
        TST.B     0(r15)                ; [] |193| 
        JNE       $C$L5                 ; [] |193| 
                                          ; [] |193| 
;* --------------------------------------------------------------------------*
$C$DW$68	.dwtag  DW_TAG_TI_branch
	.dwattr $C$DW$68, DW_AT_low_pc(0x00)
	.dwattr $C$DW$68, DW_AT_TI_return

        RET       ; [] 
        ; [] 
	.dwattr $C$DW$64, DW_AT_TI_end_file("../Hardware/uart.c")
	.dwattr $C$DW$64, DW_AT_TI_end_line(0xc5)
	.dwattr $C$DW$64, DW_AT_TI_end_column(0x01)
	.dwendentry
	.dwendtag $C$DW$64

	.sect	".text:UartSetup"
	.clink
	.global	UartSetup

$C$DW$69	.dwtag  DW_TAG_subprogram
	.dwattr $C$DW$69, DW_AT_name("UartSetup")
	.dwattr $C$DW$69, DW_AT_low_pc(UartSetup)
	.dwattr $C$DW$69, DW_AT_high_pc(0x00)
	.dwattr $C$DW$69, DW_AT_TI_symbol_name("UartSetup")
	.dwattr $C$DW$69, DW_AT_external
	.dwattr $C$DW$69, DW_AT_TI_begin_file("../Hardware/uart.c")
	.dwattr $C$DW$69, DW_AT_TI_begin_line(0xcd)
	.dwattr $C$DW$69, DW_AT_TI_begin_column(0x01)
	.dwattr $C$DW$69, DW_AT_decl_file("../Hardware/uart.c")
	.dwattr $C$DW$69, DW_AT_decl_line(0xcd)
	.dwattr $C$DW$69, DW_AT_decl_column(0x01)
	.dwattr $C$DW$69, DW_AT_TI_max_frame_size(0x12)
	.dwpsn	file "../Hardware/uart.c",line 206,column 1,is_stmt,address UartSetup,isa 0

	.dwfde $C$DW$CIE, UartSetup

;*****************************************************************************
;* FUNCTION NAME: UartSetup                                                  *
;*                                                                           *
;*   Regs Modified     : SP,SR,r11,r12,r13,r14,r15                           *
;*   Regs Used         : SP,SR,r11,r12,r13,r14,r15                           *
;*   Local Frame Size  : 0 Args + 16 Auto + 0 Save = 16 byte                 *
;*****************************************************************************
UartSetup:
;* --------------------------------------------------------------------------*
$C$DW$70	.dwtag  DW_TAG_variable
	.dwattr $C$DW$70, DW_AT_name("config")
	.dwattr $C$DW$70, DW_AT_TI_symbol_name("config")
	.dwattr $C$DW$70, DW_AT_type(*$C$DW$T$32)
	.dwattr $C$DW$70, DW_AT_location[DW_OP_breg1 0]

	.dwcfi	cfa_offset, 2
	.dwcfi	save_reg_to_mem, 16, -2
        SUB.W     #16,SP                ; [] 
	.dwcfi	cfa_offset, 18
	.dwpsn	file "../Hardware/uart.c",line 207,column 25,is_stmt,isa 0
        MOVA      SP,r12                ; [] |207| 
        MOV.W     #$P$T0$1+0,r13        ; [] |207| 
        MOV.W     #16,r14               ; [] |207| 
$C$DW$71	.dwtag  DW_TAG_TI_branch
	.dwattr $C$DW$71, DW_AT_low_pc(0x00)
	.dwattr $C$DW$71, DW_AT_name("memcpy")
	.dwattr $C$DW$71, DW_AT_TI_call

        CALL      #memcpy               ; [] |207| 
                                          ; [] |207| 
	.dwpsn	file "../Hardware/uart.c",line 221,column 2,is_stmt,isa 0
        OR.B      #3,&PASEL0_L+0        ; [] |221| 
	.dwpsn	file "../Hardware/uart.c",line 222,column 2,is_stmt,isa 0
        MOV.B     #1,r12                ; [] |222| 
        MOV.W     #3,r13                ; [] |222| 
        MOV.B     #1,r14                ; [] |222| 
$C$DW$72	.dwtag  DW_TAG_TI_branch
	.dwattr $C$DW$72, DW_AT_low_pc(0x00)
	.dwattr $C$DW$72, DW_AT_name("GPIO_setAsPeripheralModuleFunctionInputPin")
	.dwattr $C$DW$72, DW_AT_TI_call

        CALL      #GPIO_setAsPeripheralModuleFunctionInputPin ; [] |222| 
                                          ; [] |222| 
	.dwpsn	file "../Hardware/uart.c",line 227,column 2,is_stmt,isa 0
        MOV.W     #1280,r12             ; [] |227| 
$C$DW$73	.dwtag  DW_TAG_TI_branch
	.dwattr $C$DW$73, DW_AT_low_pc(0x00)
	.dwattr $C$DW$73, DW_AT_name("EUSCI_A_UART_disable")
	.dwattr $C$DW$73, DW_AT_TI_call

        CALL      #EUSCI_A_UART_disable ; [] |227| 
                                          ; [] |227| 
	.dwpsn	file "../Hardware/uart.c",line 228,column 2,is_stmt,isa 0
        MOV.W     #1280,r12             ; [] |228| 
        MOVA      SP,r13                ; [] |228| 
$C$DW$74	.dwtag  DW_TAG_TI_branch
	.dwattr $C$DW$74, DW_AT_low_pc(0x00)
	.dwattr $C$DW$74, DW_AT_name("EUSCI_A_UART_init")
	.dwattr $C$DW$74, DW_AT_TI_call

        CALL      #EUSCI_A_UART_init    ; [] |228| 
                                          ; [] |228| 
	.dwpsn	file "../Hardware/uart.c",line 229,column 2,is_stmt,isa 0
        MOV.W     #1280,r12             ; [] |229| 
$C$DW$75	.dwtag  DW_TAG_TI_branch
	.dwattr $C$DW$75, DW_AT_low_pc(0x00)
	.dwattr $C$DW$75, DW_AT_name("EUSCI_A_UART_enable")
	.dwattr $C$DW$75, DW_AT_TI_call

        CALL      #EUSCI_A_UART_enable  ; [] |229| 
                                          ; [] |229| 
	.dwpsn	file "../Hardware/uart.c",line 230,column 2,is_stmt,isa 0
        MOV.W     #1280,r12             ; [] |230| 
        MOV.B     #1,r13                ; [] |230| 
$C$DW$76	.dwtag  DW_TAG_TI_branch
	.dwattr $C$DW$76, DW_AT_low_pc(0x00)
	.dwattr $C$DW$76, DW_AT_name("EUSCI_A_UART_clearInterrupt")
	.dwattr $C$DW$76, DW_AT_TI_call

        CALL      #EUSCI_A_UART_clearInterrupt ; [] |230| 
                                          ; [] |230| 
	.dwpsn	file "../Hardware/uart.c",line 231,column 2,is_stmt,isa 0
        MOV.W     #1280,r12             ; [] |231| 
        MOV.B     #1,r13                ; [] |231| 
$C$DW$77	.dwtag  DW_TAG_TI_branch
	.dwattr $C$DW$77, DW_AT_low_pc(0x00)
	.dwattr $C$DW$77, DW_AT_name("EUSCI_A_UART_enableInterrupt")
	.dwattr $C$DW$77, DW_AT_TI_call

        CALL      #EUSCI_A_UART_enableInterrupt ; [] |231| 
                                          ; [] |231| 
        ADD.W     #16,SP                ; [] 
	.dwcfi	cfa_offset, 2
$C$DW$78	.dwtag  DW_TAG_TI_branch
	.dwattr $C$DW$78, DW_AT_low_pc(0x00)
	.dwattr $C$DW$78, DW_AT_TI_return

        RET       ; [] 
        ; [] 
	.dwattr $C$DW$69, DW_AT_TI_end_file("../Hardware/uart.c")
	.dwattr $C$DW$69, DW_AT_TI_end_line(0xfd)
	.dwattr $C$DW$69, DW_AT_TI_end_column(0x01)
	.dwendentry
	.dwendtag $C$DW$69

	.sect	".text:getByteFromBuffer"
	.clink
	.global	getByteFromBuffer

$C$DW$79	.dwtag  DW_TAG_subprogram
	.dwattr $C$DW$79, DW_AT_name("getByteFromBuffer")
	.dwattr $C$DW$79, DW_AT_low_pc(getByteFromBuffer)
	.dwattr $C$DW$79, DW_AT_high_pc(0x00)
	.dwattr $C$DW$79, DW_AT_TI_symbol_name("getByteFromBuffer")
	.dwattr $C$DW$79, DW_AT_external
	.dwattr $C$DW$79, DW_AT_type(*$C$DW$T$46)
	.dwattr $C$DW$79, DW_AT_TI_begin_file("../Hardware/uart.c")
	.dwattr $C$DW$79, DW_AT_TI_begin_line(0x106)
	.dwattr $C$DW$79, DW_AT_TI_begin_column(0x07)
	.dwattr $C$DW$79, DW_AT_decl_file("../Hardware/uart.c")
	.dwattr $C$DW$79, DW_AT_decl_line(0x106)
	.dwattr $C$DW$79, DW_AT_decl_column(0x07)
	.dwattr $C$DW$79, DW_AT_TI_max_frame_size(0x02)
	.dwpsn	file "../Hardware/uart.c",line 263,column 1,is_stmt,address getByteFromBuffer,isa 0

	.dwfde $C$DW$CIE, getByteFromBuffer
$C$DW$80	.dwtag  DW_TAG_formal_parameter
	.dwattr $C$DW$80, DW_AT_name("pos")
	.dwattr $C$DW$80, DW_AT_TI_symbol_name("pos")
	.dwattr $C$DW$80, DW_AT_type(*$C$DW$T$46)
	.dwattr $C$DW$80, DW_AT_location[DW_OP_reg12]


;*****************************************************************************
;* FUNCTION NAME: getByteFromBuffer                                          *
;*                                                                           *
;*   Regs Modified     : SP,SR,r12,r15                                       *
;*   Regs Used         : SP,SR,r12,r15                                       *
;*   Local Frame Size  : 0 Args + 0 Auto + 0 Save = 0 byte                   *
;*****************************************************************************
getByteFromBuffer:
;* --------------------------------------------------------------------------*
;* r12   assigned to pos
$C$DW$81	.dwtag  DW_TAG_variable
	.dwattr $C$DW$81, DW_AT_name("pos")
	.dwattr $C$DW$81, DW_AT_TI_symbol_name("pos")
	.dwattr $C$DW$81, DW_AT_type(*$C$DW$T$74)
	.dwattr $C$DW$81, DW_AT_location[DW_OP_reg12]

;* r12   assigned to lsNibble
$C$DW$82	.dwtag  DW_TAG_variable
	.dwattr $C$DW$82, DW_AT_name("lsNibble")
	.dwattr $C$DW$82, DW_AT_TI_symbol_name("lsNibble")
	.dwattr $C$DW$82, DW_AT_type(*$C$DW$T$46)
	.dwattr $C$DW$82, DW_AT_location[DW_OP_reg12]

;* r15   assigned to msNibble
$C$DW$83	.dwtag  DW_TAG_variable
	.dwattr $C$DW$83, DW_AT_name("msNibble")
	.dwattr $C$DW$83, DW_AT_TI_symbol_name("msNibble")
	.dwattr $C$DW$83, DW_AT_type(*$C$DW$T$46)
	.dwattr $C$DW$83, DW_AT_location[DW_OP_reg15]

	.dwcfi	cfa_offset, 2
	.dwcfi	save_reg_to_mem, 16, -2
	.dwpsn	file "../Hardware/uart.c",line 265,column 2,is_stmt,isa 0
        MOV.B     r12,r15               ; [] |265| 
        RLAM.W    #1,r15                ; [] |265| 
        MOV.B     uartBuffer+0(r15),r15 ; [] |265| 
        CMP.B     #58,r15               ; [] |265| 
        JLO       $C$L8                 ; [] |265| 
                                          ; [] |265| 
;* --------------------------------------------------------------------------*
	.dwpsn	file "../Hardware/uart.c",line 267,column 28,is_stmt,isa 0
        CMP.B     #71,r15               ; [] |267| 
        JHS       $C$L7                 ; [] |267| 
                                          ; [] |267| 
;* --------------------------------------------------------------------------*
        SUB.B     #55,r15               ; [] |267| 
        JMP       $C$L9                 ; [] |267| 
                                          ; [] |267| 
;* --------------------------------------------------------------------------*
$C$L7:    
        SUB.B     #87,r15               ; [] |267| 
	.dwpsn	file "../Hardware/uart.c",line 267,column 53,is_stmt,isa 0
        JMP       $C$L9                 ; [] |267| 
                                          ; [] |267| 
;* --------------------------------------------------------------------------*
$C$L8:    
	.dwpsn	file "../Hardware/uart.c",line 266,column 25,is_stmt,isa 0
        SUB.B     #48,r15               ; [] |266| 
;* --------------------------------------------------------------------------*
$C$L9:    
	.dwpsn	file "../Hardware/uart.c",line 270,column 2,is_stmt,isa 0
        MOV.B     r12,r12               ; [] |270| 
        RLAM.W    #1,r12                ; [] |270| 
        MOV.B     uartBuffer+1(r12),r12 ; [] |270| 
        CMP.B     #58,r12               ; [] |270| 
        JLO       $C$L11                ; [] |270| 
                                          ; [] |270| 
;* --------------------------------------------------------------------------*
	.dwpsn	file "../Hardware/uart.c",line 272,column 28,is_stmt,isa 0
        CMP.B     #71,r12               ; [] |272| 
        JHS       $C$L10                ; [] |272| 
                                          ; [] |272| 
;* --------------------------------------------------------------------------*
        SUB.B     #55,r12               ; [] |272| 
        JMP       $C$L12                ; [] |272| 
                                          ; [] |272| 
;* --------------------------------------------------------------------------*
$C$L10:    
        SUB.B     #87,r12               ; [] |272| 
	.dwpsn	file "../Hardware/uart.c",line 272,column 53,is_stmt,isa 0
        JMP       $C$L12                ; [] |272| 
                                          ; [] |272| 
;* --------------------------------------------------------------------------*
$C$L11:    
	.dwpsn	file "../Hardware/uart.c",line 271,column 25,is_stmt,isa 0
        SUB.B     #48,r12               ; [] |271| 
;* --------------------------------------------------------------------------*
$C$L12:    
	.dwpsn	file "../Hardware/uart.c",line 274,column 2,is_stmt,isa 0
        RPT #4 || RLAX.B r15 ; [] |274| 
        AND.B     #15,r12               ; [] |274| 
        ADD.B     r15,r12               ; [] |274| 
$C$DW$84	.dwtag  DW_TAG_TI_branch
	.dwattr $C$DW$84, DW_AT_low_pc(0x00)
	.dwattr $C$DW$84, DW_AT_TI_return

        RET       ; [] 
        ; [] 
	.dwattr $C$DW$79, DW_AT_TI_end_file("../Hardware/uart.c")
	.dwattr $C$DW$79, DW_AT_TI_end_line(0x113)
	.dwattr $C$DW$79, DW_AT_TI_end_column(0x01)
	.dwendentry
	.dwendtag $C$DW$79

	.sect	".text:USCI_A0_ISR"
	.clink
	.global	USCI_A0_ISR

$C$DW$85	.dwtag  DW_TAG_subprogram
	.dwattr $C$DW$85, DW_AT_name("USCI_A0_ISR")
	.dwattr $C$DW$85, DW_AT_low_pc(USCI_A0_ISR)
	.dwattr $C$DW$85, DW_AT_high_pc(0x00)
	.dwattr $C$DW$85, DW_AT_TI_symbol_name("USCI_A0_ISR")
	.dwattr $C$DW$85, DW_AT_external
	.dwattr $C$DW$85, DW_AT_TI_begin_file("../Hardware/uart.c")
	.dwattr $C$DW$85, DW_AT_TI_begin_line(0x116)
	.dwattr $C$DW$85, DW_AT_TI_begin_column(0x12)
	.dwattr $C$DW$85, DW_AT_decl_file("../Hardware/uart.c")
	.dwattr $C$DW$85, DW_AT_decl_line(0x116)
	.dwattr $C$DW$85, DW_AT_decl_column(0x12)
	.dwattr $C$DW$85, DW_AT_TI_interrupt
	.dwattr $C$DW$85, DW_AT_TI_max_frame_size(0x0c)
	.dwpsn	file "../Hardware/uart.c",line 279,column 1,is_stmt,address USCI_A0_ISR,isa 0

	.dwfde $C$DW$CIE, USCI_A0_ISR
$C$DW$86	.dwtag  DW_TAG_variable
	.dwattr $C$DW$86, DW_AT_name("bufferCount")
	.dwattr $C$DW$86, DW_AT_TI_symbol_name("bufferCount$2")
	.dwattr $C$DW$86, DW_AT_type(*$C$DW$T$46)
	.dwattr $C$DW$86, DW_AT_location[DW_OP_addr bufferCount$2]

$C$DW$87	.dwtag  DW_TAG_variable
	.dwattr $C$DW$87, DW_AT_name("temp0")
	.dwattr $C$DW$87, DW_AT_TI_symbol_name("temp0$3")
	.dwattr $C$DW$87, DW_AT_type(*$C$DW$T$6)
	.dwattr $C$DW$87, DW_AT_location[DW_OP_addr temp0$3]

$C$DW$88	.dwtag  DW_TAG_variable
	.dwattr $C$DW$88, DW_AT_name("temp1")
	.dwattr $C$DW$88, DW_AT_TI_symbol_name("temp1$4")
	.dwattr $C$DW$88, DW_AT_type(*$C$DW$T$6)
	.dwattr $C$DW$88, DW_AT_location[DW_OP_addr temp1$4]


;*****************************************************************************
;* FUNCTION NAME: USCI_A0_ISR                                                *
;*                                                                           *
;*   Regs Modified     : SP,SR,r11,r12,r13,r14,r15                           *
;*   Regs Used         : SP,SR,r11,r12,r13,r14,r15                           *
;*   Local Frame Size  : 0 Args + 0 Auto + 10 Save = 10 byte                 *
;*****************************************************************************
USCI_A0_ISR:
;* --------------------------------------------------------------------------*
;* r12   assigned to $O$Y0
	.dwcfi	cfa_offset, 2
	.dwcfi	save_reg_to_mem, 16, -2
        PUSHM.W   #5,r15                ; [] 
	.dwcfi	save_reg_to_mem, 15, -4
	.dwcfi	save_reg_to_mem, 14, -6
	.dwcfi	save_reg_to_mem, 13, -8
	.dwcfi	save_reg_to_mem, 12, -10
	.dwcfi	save_reg_to_mem, 11, -12
	.dwcfi	cfa_offset, 12
	.dwpsn	file "../Hardware/uart.c",line 283,column 2,is_stmt,isa 0
        MOV.B     &temp0$3+0,&temp1$4+0 ; [] |283| 
	.dwpsn	file "../Hardware/uart.c",line 284,column 2,is_stmt,isa 0
        MOV.W     #1280,r12             ; [] |284| 
$C$DW$89	.dwtag  DW_TAG_TI_branch
	.dwattr $C$DW$89, DW_AT_low_pc(0x00)
	.dwattr $C$DW$89, DW_AT_name("EUSCI_A_UART_receiveData")
	.dwattr $C$DW$89, DW_AT_TI_call

        CALL      #EUSCI_A_UART_receiveData ; [] |284| 
                                          ; [] |284| 
        MOV.B     r12,&temp0$3+0        ; [] |284| 
	.dwpsn	file "../Hardware/uart.c",line 285,column 2,is_stmt,isa 0
        MOV.B     &bufferCount$2+0,r15  ; [] |285| 
        MOV.B     r12,uartBuffer+0(r15) ; [] |285| 
        ADD.B     #1,&bufferCount$2+0   ; [] |285| 
	.dwpsn	file "../Hardware/uart.c",line 288,column 2,is_stmt,isa 0
        CMP.B     #13,&temp1$4+0        ; [] |288| 
        JNE       $C$L13                ; [] |288| 
                                          ; [] |288| 
;* --------------------------------------------------------------------------*
        CMP.B     #10,&temp0$3+0        ; [] |288| 
        JEQ       $C$L14                ; [] |288| 
                                          ; [] |288| 
;* --------------------------------------------------------------------------*
$C$L13:    
	.dwpsn	file "../Hardware/uart.c",line 294,column 2,is_stmt,isa 0
        CMP.B     #50,&bufferCount$2+0  ; [] |294| 
        JLO       $C$L15                ; [] |294| 
                                          ; [] |294| 
;* --------------------------------------------------------------------------*
	.dwpsn	file "../Hardware/uart.c",line 296,column 3,is_stmt,isa 0
        MOV.B     #0,&bufferCount$2+0   ; [] |296| 
        JMP       $C$L15                ; [] |296| 
                                          ; [] |296| 
;* --------------------------------------------------------------------------*
$C$L14:    
	.dwpsn	file "../Hardware/uart.c",line 290,column 3,is_stmt,isa 0
        MOV.B     &bufferCount$2+0,r15  ; [] |290| 
        SUB.B     #2,r15                ; [] |290| 
        MOV.B     r15,&uartCount+0      ; [] |290| 
	.dwpsn	file "../Hardware/uart.c",line 291,column 3,is_stmt,isa 0
        MOV.B     #1,&newUartCommand+0  ; [] |291| 
	.dwpsn	file "../Hardware/uart.c",line 292,column 3,is_stmt,isa 0
        MOV.B     #0,&bufferCount$2+0   ; [] |292| 
;* --------------------------------------------------------------------------*
$C$L15:    
	.dwpsn	file "../Hardware/uart.c",line 299,column 2,is_stmt,isa 0
        MOV.W     #1280,r12             ; [] |299| 
        MOV.B     #1,r13                ; [] |299| 
$C$DW$90	.dwtag  DW_TAG_TI_branch
	.dwattr $C$DW$90, DW_AT_low_pc(0x00)
	.dwattr $C$DW$90, DW_AT_name("EUSCI_A_UART_clearInterrupt")
	.dwattr $C$DW$90, DW_AT_TI_call

        CALL      #EUSCI_A_UART_clearInterrupt ; [] |299| 
                                          ; [] |299| 
        POPM.W    #5,r15                ; [] 
	.dwcfi	restore_reg, 11
	.dwcfi	restore_reg, 12
	.dwcfi	restore_reg, 13
	.dwcfi	restore_reg, 14
	.dwcfi	restore_reg, 15
	.dwcfi	cfa_offset, 2
$C$DW$91	.dwtag  DW_TAG_TI_branch
	.dwattr $C$DW$91, DW_AT_low_pc(0x00)
	.dwattr $C$DW$91, DW_AT_TI_return

        RETI      ; [] 
        ; [] 
	.dwattr $C$DW$85, DW_AT_TI_end_file("../Hardware/uart.c")
	.dwattr $C$DW$85, DW_AT_TI_end_line(0x12c)
	.dwattr $C$DW$85, DW_AT_TI_end_column(0x01)
	.dwendentry
	.dwendtag $C$DW$85

	.sect	".text:uartEcho"
	.clink
	.global	uartEcho

$C$DW$92	.dwtag  DW_TAG_subprogram
	.dwattr $C$DW$92, DW_AT_name("uartEcho")
	.dwattr $C$DW$92, DW_AT_low_pc(uartEcho)
	.dwattr $C$DW$92, DW_AT_high_pc(0x00)
	.dwattr $C$DW$92, DW_AT_TI_symbol_name("uartEcho")
	.dwattr $C$DW$92, DW_AT_external
	.dwattr $C$DW$92, DW_AT_TI_begin_file("../Hardware/uart.c")
	.dwattr $C$DW$92, DW_AT_TI_begin_line(0x12e)
	.dwattr $C$DW$92, DW_AT_TI_begin_column(0x06)
	.dwattr $C$DW$92, DW_AT_decl_file("../Hardware/uart.c")
	.dwattr $C$DW$92, DW_AT_decl_line(0x12e)
	.dwattr $C$DW$92, DW_AT_decl_column(0x06)
	.dwattr $C$DW$92, DW_AT_TI_max_frame_size(0x02)
	.dwpsn	file "../Hardware/uart.c",line 303,column 1,is_stmt,address uartEcho,isa 0

	.dwfde $C$DW$CIE, uartEcho

;*****************************************************************************
;* FUNCTION NAME: uartEcho                                                   *
;*                                                                           *
;*   Regs Modified     : SP,SR,r12,r14,r15                                   *
;*   Regs Used         : SP,SR,r12,r14,r15                                   *
;*   Local Frame Size  : 0 Args + 0 Auto + 0 Save = 0 byte                   *
;*****************************************************************************
uartEcho:
;* --------------------------------------------------------------------------*
;* r15   assigned to i
$C$DW$93	.dwtag  DW_TAG_variable
	.dwattr $C$DW$93, DW_AT_name("i")
	.dwattr $C$DW$93, DW_AT_TI_symbol_name("i")
	.dwattr $C$DW$93, DW_AT_type(*$C$DW$T$46)
	.dwattr $C$DW$93, DW_AT_location[DW_OP_reg15]

	.dwcfi	cfa_offset, 2
	.dwcfi	save_reg_to_mem, 16, -2
	.dwpsn	file "../Hardware/uart.c",line 305,column 6,is_stmt,isa 0
        MOV.B     #0,r15                ; [] |305| 
        JMP       $C$L17                ; [] |305| 
                                          ; [] |305| 
;* --------------------------------------------------------------------------*
$C$L16:    
	.dwpsn	file "../Hardware/uart.c",line 307,column 3,is_stmt,isa 0
        MOV.B     r15,r14               ; [] |307| 
        MOV.B     uartBuffer+0(r14),r12 ; [] |307| 
$C$DW$94	.dwtag  DW_TAG_TI_branch
	.dwattr $C$DW$94, DW_AT_low_pc(0x00)
	.dwattr $C$DW$94, DW_AT_name("UartPutChar")
	.dwattr $C$DW$94, DW_AT_TI_call

        CALL      #UartPutChar          ; [] |307| 
                                          ; [] |307| 
	.dwpsn	file "../Hardware/uart.c",line 305,column 28,is_stmt,isa 0
        ADD.B     #1,r15                ; [] |305| 
;* --------------------------------------------------------------------------*
;*   BEGIN LOOP $C$L17
;* --------------------------------------------------------------------------*
$C$L17:    
	.dwpsn	file "../Hardware/uart.c",line 305,column 13,is_stmt,isa 0
        CMP.B     &uartCount+0,r15      ; [] |305| 
        JLO       $C$L16                ; [] |305| 
                                          ; [] |305| 
;* --------------------------------------------------------------------------*
$C$DW$95	.dwtag  DW_TAG_TI_branch
	.dwattr $C$DW$95, DW_AT_low_pc(0x00)
	.dwattr $C$DW$95, DW_AT_TI_return

        RET       ; [] 
        ; [] 
	.dwattr $C$DW$92, DW_AT_TI_end_file("../Hardware/uart.c")
	.dwattr $C$DW$92, DW_AT_TI_end_line(0x135)
	.dwattr $C$DW$92, DW_AT_TI_end_column(0x01)
	.dwendentry
	.dwendtag $C$DW$92

	.sect	".text:checkCommandLength"
	.clink
	.global	checkCommandLength

$C$DW$96	.dwtag  DW_TAG_subprogram
	.dwattr $C$DW$96, DW_AT_name("checkCommandLength")
	.dwattr $C$DW$96, DW_AT_low_pc(checkCommandLength)
	.dwattr $C$DW$96, DW_AT_high_pc(0x00)
	.dwattr $C$DW$96, DW_AT_TI_symbol_name("checkCommandLength")
	.dwattr $C$DW$96, DW_AT_external
	.dwattr $C$DW$96, DW_AT_type(*$C$DW$T$46)
	.dwattr $C$DW$96, DW_AT_TI_begin_file("../Hardware/uart.c")
	.dwattr $C$DW$96, DW_AT_TI_begin_line(0x137)
	.dwattr $C$DW$96, DW_AT_TI_begin_column(0x07)
	.dwattr $C$DW$96, DW_AT_decl_file("../Hardware/uart.c")
	.dwattr $C$DW$96, DW_AT_decl_line(0x137)
	.dwattr $C$DW$96, DW_AT_decl_column(0x07)
	.dwattr $C$DW$96, DW_AT_TI_max_frame_size(0x02)
	.dwpsn	file "../Hardware/uart.c",line 312,column 1,is_stmt,address checkCommandLength,isa 0

	.dwfde $C$DW$CIE, checkCommandLength
$C$DW$97	.dwtag  DW_TAG_formal_parameter
	.dwattr $C$DW$97, DW_AT_name("expectedLength")
	.dwattr $C$DW$97, DW_AT_TI_symbol_name("expectedLength")
	.dwattr $C$DW$97, DW_AT_type(*$C$DW$T$46)
	.dwattr $C$DW$97, DW_AT_location[DW_OP_reg12]


;*****************************************************************************
;* FUNCTION NAME: checkCommandLength                                         *
;*                                                                           *
;*   Regs Modified     : SP,SR,r12,r15                                       *
;*   Regs Used         : SP,SR,r12,r15                                       *
;*   Local Frame Size  : 0 Args + 0 Auto + 0 Save = 0 byte                   *
;*****************************************************************************
checkCommandLength:
;* --------------------------------------------------------------------------*
;* r12   assigned to expectedLength
$C$DW$98	.dwtag  DW_TAG_variable
	.dwattr $C$DW$98, DW_AT_name("expectedLength")
	.dwattr $C$DW$98, DW_AT_TI_symbol_name("expectedLength")
	.dwattr $C$DW$98, DW_AT_type(*$C$DW$T$74)
	.dwattr $C$DW$98, DW_AT_location[DW_OP_reg12]

	.dwcfi	cfa_offset, 2
	.dwcfi	save_reg_to_mem, 16, -2
	.dwpsn	file "../Hardware/uart.c",line 313,column 2,is_stmt,isa 0
        BIT.B     #1,&uartCount+0       ; [] |313| 
        JNE       $C$L18                ; [] |313| 
                                          ; [] |313| 
;* --------------------------------------------------------------------------*
        MOV.B     r12,r12               ; [] |313| 
        MOV.B     &uartCount+0,r15      ; [] |313| 
        RRUM.W    #1,r15                ; [] |313| 
        CMP.W     r12,r15               ; [] |313| 
        JNE       $C$L18                ; [] |313| 
                                          ; [] |313| 
;* --------------------------------------------------------------------------*
	.dwpsn	file "../Hardware/uart.c",line 315,column 3,is_stmt,isa 0
        MOV.B     #1,r12                ; [] |315| 
        JMP       $C$L19                ; [] |315| 
                                          ; [] |315| 
;* --------------------------------------------------------------------------*
$C$L18:    
	.dwpsn	file "../Hardware/uart.c",line 319,column 3,is_stmt,isa 0
        MOV.B     #0,r12                ; [] |319| 
;* --------------------------------------------------------------------------*
$C$L19:    
$C$DW$99	.dwtag  DW_TAG_TI_branch
	.dwattr $C$DW$99, DW_AT_low_pc(0x00)
	.dwattr $C$DW$99, DW_AT_TI_return

        RET       ; [] 
        ; [] 
	.dwattr $C$DW$96, DW_AT_TI_end_file("../Hardware/uart.c")
	.dwattr $C$DW$96, DW_AT_TI_end_line(0x141)
	.dwattr $C$DW$96, DW_AT_TI_end_column(0x01)
	.dwendentry
	.dwendtag $C$DW$96

;*****************************************************************************
;* UNDEFINED EXTERNAL REFERENCES                                             *
;*****************************************************************************
	.global	GPIO_setAsPeripheralModuleFunctionInputPin
	.global	EUSCI_A_UART_init
	.global	EUSCI_A_UART_receiveData
	.global	EUSCI_A_UART_enableInterrupt
	.global	EUSCI_A_UART_clearInterrupt
	.global	EUSCI_A_UART_enable
	.global	EUSCI_A_UART_disable
	.global	PASEL0_L
	.global	UCA0TXBUF
	.global	UCA0IFG
	.global	uartBuffer
	.global	uartCount
	.global	newUartCommand
	.global	memcpy

;******************************************************************************
;* BUILD ATTRIBUTES                                                           *
;******************************************************************************
	.battr "TI", Tag_File, 1, Tag_LPM_INFO(1)
	.battr "TI", Tag_File, 1, Tag_PORTS_INIT_INFO("012345678901ABCDEFGHIJ00000000000011110000000000000000000000000000")
	.battr "TI", Tag_File, 1, Tag_LOCKIO_INFO(1)
	.battr "TI", Tag_File, 1, Tag_WAITSTATE_INFO(2)
	.battr "TI", Tag_File, 1, Tag_HW_MPY32_INFO(1)
	.battr "TI", Tag_File, 1, Tag_HW_MPY_ISR_INFO(3)
	.battr "TI", Tag_File, 1, Tag_HW_MPY_INLINE_INFO(1)
	.battr "mspabi", Tag_File, 1, Tag_enum_size(2)

;******************************************************************************
;* TYPE INFORMATION                                                           *
;******************************************************************************

$C$DW$T$26	.dwtag  DW_TAG_enumeration_type
	.dwattr $C$DW$T$26, DW_AT_byte_size(0x02)
$C$DW$100	.dwtag  DW_TAG_enumerator
	.dwattr $C$DW$100, DW_AT_name("ST_IDLE")
	.dwattr $C$DW$100, DW_AT_const_value(0x00)
	.dwattr $C$DW$100, DW_AT_decl_file("H:/SVN/admont_demo/D8101A/40_Implementation/ADMONT 8101A Demo/NFC/iso14443a.h")
	.dwattr $C$DW$100, DW_AT_decl_line(0x3b)
	.dwattr $C$DW$100, DW_AT_decl_column(0x02)

$C$DW$101	.dwtag  DW_TAG_enumerator
	.dwattr $C$DW$101, DW_AT_name("ST_AC1")
	.dwattr $C$DW$101, DW_AT_const_value(0x01)
	.dwattr $C$DW$101, DW_AT_decl_file("H:/SVN/admont_demo/D8101A/40_Implementation/ADMONT 8101A Demo/NFC/iso14443a.h")
	.dwattr $C$DW$101, DW_AT_decl_line(0x3b)
	.dwattr $C$DW$101, DW_AT_decl_column(0x0b)

$C$DW$102	.dwtag  DW_TAG_enumerator
	.dwattr $C$DW$102, DW_AT_name("ST_SEL1")
	.dwattr $C$DW$102, DW_AT_const_value(0x02)
	.dwattr $C$DW$102, DW_AT_decl_file("H:/SVN/admont_demo/D8101A/40_Implementation/ADMONT 8101A Demo/NFC/iso14443a.h")
	.dwattr $C$DW$102, DW_AT_decl_line(0x3b)
	.dwattr $C$DW$102, DW_AT_decl_column(0x13)

$C$DW$103	.dwtag  DW_TAG_enumerator
	.dwattr $C$DW$103, DW_AT_name("ST_AC2")
	.dwattr $C$DW$103, DW_AT_const_value(0x03)
	.dwattr $C$DW$103, DW_AT_decl_file("H:/SVN/admont_demo/D8101A/40_Implementation/ADMONT 8101A Demo/NFC/iso14443a.h")
	.dwattr $C$DW$103, DW_AT_decl_line(0x3b)
	.dwattr $C$DW$103, DW_AT_decl_column(0x1c)

$C$DW$104	.dwtag  DW_TAG_enumerator
	.dwattr $C$DW$104, DW_AT_name("ST_SEL2")
	.dwattr $C$DW$104, DW_AT_const_value(0x04)
	.dwattr $C$DW$104, DW_AT_decl_file("H:/SVN/admont_demo/D8101A/40_Implementation/ADMONT 8101A Demo/NFC/iso14443a.h")
	.dwattr $C$DW$104, DW_AT_decl_line(0x3b)
	.dwattr $C$DW$104, DW_AT_decl_column(0x24)

$C$DW$105	.dwtag  DW_TAG_enumerator
	.dwattr $C$DW$105, DW_AT_name("ST_SELECTED")
	.dwattr $C$DW$105, DW_AT_const_value(0x05)
	.dwattr $C$DW$105, DW_AT_decl_file("H:/SVN/admont_demo/D8101A/40_Implementation/ADMONT 8101A Demo/NFC/iso14443a.h")
	.dwattr $C$DW$105, DW_AT_decl_line(0x3b)
	.dwattr $C$DW$105, DW_AT_decl_column(0x2d)

$C$DW$106	.dwtag  DW_TAG_enumerator
	.dwattr $C$DW$106, DW_AT_name("ST_NOT_SELECTED")
	.dwattr $C$DW$106, DW_AT_const_value(0x06)
	.dwattr $C$DW$106, DW_AT_decl_file("H:/SVN/admont_demo/D8101A/40_Implementation/ADMONT 8101A Demo/NFC/iso14443a.h")
	.dwattr $C$DW$106, DW_AT_decl_line(0x3b)
	.dwattr $C$DW$106, DW_AT_decl_column(0x3a)

	.dwattr $C$DW$T$26, DW_AT_decl_file("H:/SVN/admont_demo/D8101A/40_Implementation/ADMONT 8101A Demo/NFC/iso14443a.h")
	.dwattr $C$DW$T$26, DW_AT_decl_line(0x3a)
	.dwattr $C$DW$T$26, DW_AT_decl_column(0x01)
	.dwendtag $C$DW$T$26

$C$DW$T$27	.dwtag  DW_TAG_typedef
	.dwattr $C$DW$T$27, DW_AT_name("tagState_t")
	.dwattr $C$DW$T$27, DW_AT_type(*$C$DW$T$26)
	.dwattr $C$DW$T$27, DW_AT_language(DW_LANG_C)
	.dwattr $C$DW$T$27, DW_AT_decl_file("H:/SVN/admont_demo/D8101A/40_Implementation/ADMONT 8101A Demo/NFC/iso14443a.h")
	.dwattr $C$DW$T$27, DW_AT_decl_line(0x3c)
	.dwattr $C$DW$T$27, DW_AT_decl_column(0x03)


$C$DW$T$19	.dwtag  DW_TAG_structure_type
	.dwattr $C$DW$T$19, DW_AT_byte_size(0x04)
$C$DW$107	.dwtag  DW_TAG_member
	.dwattr $C$DW$107, DW_AT_type(*$C$DW$T$10)
	.dwattr $C$DW$107, DW_AT_name("quot")
	.dwattr $C$DW$107, DW_AT_TI_symbol_name("quot")
	.dwattr $C$DW$107, DW_AT_data_member_location[DW_OP_plus_uconst 0x0]
	.dwattr $C$DW$107, DW_AT_accessibility(DW_ACCESS_public)
	.dwattr $C$DW$107, DW_AT_decl_file("C:/ti/ccsv6/tools/compiler/msp430_15.12.3.LTS/include/stdlib.h")
	.dwattr $C$DW$107, DW_AT_decl_line(0x49)
	.dwattr $C$DW$107, DW_AT_decl_column(0x16)

$C$DW$108	.dwtag  DW_TAG_member
	.dwattr $C$DW$108, DW_AT_type(*$C$DW$T$10)
	.dwattr $C$DW$108, DW_AT_name("rem")
	.dwattr $C$DW$108, DW_AT_TI_symbol_name("rem")
	.dwattr $C$DW$108, DW_AT_data_member_location[DW_OP_plus_uconst 0x2]
	.dwattr $C$DW$108, DW_AT_accessibility(DW_ACCESS_public)
	.dwattr $C$DW$108, DW_AT_decl_file("C:/ti/ccsv6/tools/compiler/msp430_15.12.3.LTS/include/stdlib.h")
	.dwattr $C$DW$108, DW_AT_decl_line(0x49)
	.dwattr $C$DW$108, DW_AT_decl_column(0x1c)

	.dwattr $C$DW$T$19, DW_AT_decl_file("C:/ti/ccsv6/tools/compiler/msp430_15.12.3.LTS/include/stdlib.h")
	.dwattr $C$DW$T$19, DW_AT_decl_line(0x49)
	.dwattr $C$DW$T$19, DW_AT_decl_column(0x10)
	.dwendtag $C$DW$T$19

$C$DW$T$28	.dwtag  DW_TAG_typedef
	.dwattr $C$DW$T$28, DW_AT_name("div_t")
	.dwattr $C$DW$T$28, DW_AT_type(*$C$DW$T$19)
	.dwattr $C$DW$T$28, DW_AT_language(DW_LANG_C)
	.dwattr $C$DW$T$28, DW_AT_decl_file("C:/ti/ccsv6/tools/compiler/msp430_15.12.3.LTS/include/stdlib.h")
	.dwattr $C$DW$T$28, DW_AT_decl_line(0x49)
	.dwattr $C$DW$T$28, DW_AT_decl_column(0x23)


$C$DW$T$20	.dwtag  DW_TAG_structure_type
	.dwattr $C$DW$T$20, DW_AT_byte_size(0x08)
$C$DW$109	.dwtag  DW_TAG_member
	.dwattr $C$DW$109, DW_AT_type(*$C$DW$T$12)
	.dwattr $C$DW$109, DW_AT_name("quot")
	.dwattr $C$DW$109, DW_AT_TI_symbol_name("quot")
	.dwattr $C$DW$109, DW_AT_data_member_location[DW_OP_plus_uconst 0x0]
	.dwattr $C$DW$109, DW_AT_accessibility(DW_ACCESS_public)
	.dwattr $C$DW$109, DW_AT_decl_file("C:/ti/ccsv6/tools/compiler/msp430_15.12.3.LTS/include/stdlib.h")
	.dwattr $C$DW$109, DW_AT_decl_line(0x4b)
	.dwattr $C$DW$109, DW_AT_decl_column(0x17)

$C$DW$110	.dwtag  DW_TAG_member
	.dwattr $C$DW$110, DW_AT_type(*$C$DW$T$12)
	.dwattr $C$DW$110, DW_AT_name("rem")
	.dwattr $C$DW$110, DW_AT_TI_symbol_name("rem")
	.dwattr $C$DW$110, DW_AT_data_member_location[DW_OP_plus_uconst 0x4]
	.dwattr $C$DW$110, DW_AT_accessibility(DW_ACCESS_public)
	.dwattr $C$DW$110, DW_AT_decl_file("C:/ti/ccsv6/tools/compiler/msp430_15.12.3.LTS/include/stdlib.h")
	.dwattr $C$DW$110, DW_AT_decl_line(0x4b)
	.dwattr $C$DW$110, DW_AT_decl_column(0x1d)

	.dwattr $C$DW$T$20, DW_AT_decl_file("C:/ti/ccsv6/tools/compiler/msp430_15.12.3.LTS/include/stdlib.h")
	.dwattr $C$DW$T$20, DW_AT_decl_line(0x4b)
	.dwattr $C$DW$T$20, DW_AT_decl_column(0x10)
	.dwendtag $C$DW$T$20

$C$DW$T$29	.dwtag  DW_TAG_typedef
	.dwattr $C$DW$T$29, DW_AT_name("ldiv_t")
	.dwattr $C$DW$T$29, DW_AT_type(*$C$DW$T$20)
	.dwattr $C$DW$T$29, DW_AT_language(DW_LANG_C)
	.dwattr $C$DW$T$29, DW_AT_decl_file("C:/ti/ccsv6/tools/compiler/msp430_15.12.3.LTS/include/stdlib.h")
	.dwattr $C$DW$T$29, DW_AT_decl_line(0x4b)
	.dwattr $C$DW$T$29, DW_AT_decl_column(0x24)


$C$DW$T$21	.dwtag  DW_TAG_structure_type
	.dwattr $C$DW$T$21, DW_AT_byte_size(0x10)
$C$DW$111	.dwtag  DW_TAG_member
	.dwattr $C$DW$111, DW_AT_type(*$C$DW$T$14)
	.dwattr $C$DW$111, DW_AT_name("quot")
	.dwattr $C$DW$111, DW_AT_TI_symbol_name("quot")
	.dwattr $C$DW$111, DW_AT_data_member_location[DW_OP_plus_uconst 0x0]
	.dwattr $C$DW$111, DW_AT_accessibility(DW_ACCESS_public)
	.dwattr $C$DW$111, DW_AT_decl_file("C:/ti/ccsv6/tools/compiler/msp430_15.12.3.LTS/include/stdlib.h")
	.dwattr $C$DW$111, DW_AT_decl_line(0x4e)
	.dwattr $C$DW$111, DW_AT_decl_column(0x1c)

$C$DW$112	.dwtag  DW_TAG_member
	.dwattr $C$DW$112, DW_AT_type(*$C$DW$T$14)
	.dwattr $C$DW$112, DW_AT_name("rem")
	.dwattr $C$DW$112, DW_AT_TI_symbol_name("rem")
	.dwattr $C$DW$112, DW_AT_data_member_location[DW_OP_plus_uconst 0x8]
	.dwattr $C$DW$112, DW_AT_accessibility(DW_ACCESS_public)
	.dwattr $C$DW$112, DW_AT_decl_file("C:/ti/ccsv6/tools/compiler/msp430_15.12.3.LTS/include/stdlib.h")
	.dwattr $C$DW$112, DW_AT_decl_line(0x4e)
	.dwattr $C$DW$112, DW_AT_decl_column(0x22)

	.dwattr $C$DW$T$21, DW_AT_decl_file("C:/ti/ccsv6/tools/compiler/msp430_15.12.3.LTS/include/stdlib.h")
	.dwattr $C$DW$T$21, DW_AT_decl_line(0x4e)
	.dwattr $C$DW$T$21, DW_AT_decl_column(0x10)
	.dwendtag $C$DW$T$21

$C$DW$T$30	.dwtag  DW_TAG_typedef
	.dwattr $C$DW$T$30, DW_AT_name("lldiv_t")
	.dwattr $C$DW$T$30, DW_AT_type(*$C$DW$T$21)
	.dwattr $C$DW$T$30, DW_AT_language(DW_LANG_C)
	.dwattr $C$DW$T$30, DW_AT_decl_file("C:/ti/ccsv6/tools/compiler/msp430_15.12.3.LTS/include/stdlib.h")
	.dwattr $C$DW$T$30, DW_AT_decl_line(0x4e)
	.dwattr $C$DW$T$30, DW_AT_decl_column(0x29)


$C$DW$T$23	.dwtag  DW_TAG_structure_type
	.dwattr $C$DW$T$23, DW_AT_name("CS_initFLLParam")
	.dwattr $C$DW$T$23, DW_AT_byte_size(0x06)
$C$DW$113	.dwtag  DW_TAG_member
	.dwattr $C$DW$113, DW_AT_type(*$C$DW$T$22)
	.dwattr $C$DW$113, DW_AT_name("csCtl0")
	.dwattr $C$DW$113, DW_AT_TI_symbol_name("csCtl0")
	.dwattr $C$DW$113, DW_AT_data_member_location[DW_OP_plus_uconst 0x0]
	.dwattr $C$DW$113, DW_AT_accessibility(DW_ACCESS_public)
	.dwattr $C$DW$113, DW_AT_decl_file("H:/SVN/admont_demo/D8101A/40_Implementation/ADMONT 8101A Demo/driverlib/MSP430FR2xx_4xx/cs.h")
	.dwattr $C$DW$113, DW_AT_decl_line(0x42)
	.dwattr $C$DW$113, DW_AT_decl_column(0x0e)

$C$DW$114	.dwtag  DW_TAG_member
	.dwattr $C$DW$114, DW_AT_type(*$C$DW$T$22)
	.dwattr $C$DW$114, DW_AT_name("csCtl1")
	.dwattr $C$DW$114, DW_AT_TI_symbol_name("csCtl1")
	.dwattr $C$DW$114, DW_AT_data_member_location[DW_OP_plus_uconst 0x2]
	.dwattr $C$DW$114, DW_AT_accessibility(DW_ACCESS_public)
	.dwattr $C$DW$114, DW_AT_decl_file("H:/SVN/admont_demo/D8101A/40_Implementation/ADMONT 8101A Demo/driverlib/MSP430FR2xx_4xx/cs.h")
	.dwattr $C$DW$114, DW_AT_decl_line(0x44)
	.dwattr $C$DW$114, DW_AT_decl_column(0x0e)

$C$DW$115	.dwtag  DW_TAG_member
	.dwattr $C$DW$115, DW_AT_type(*$C$DW$T$22)
	.dwattr $C$DW$115, DW_AT_name("fsystem")
	.dwattr $C$DW$115, DW_AT_TI_symbol_name("fsystem")
	.dwattr $C$DW$115, DW_AT_data_member_location[DW_OP_plus_uconst 0x4]
	.dwattr $C$DW$115, DW_AT_accessibility(DW_ACCESS_public)
	.dwattr $C$DW$115, DW_AT_decl_file("H:/SVN/admont_demo/D8101A/40_Implementation/ADMONT 8101A Demo/driverlib/MSP430FR2xx_4xx/cs.h")
	.dwattr $C$DW$115, DW_AT_decl_line(0x46)
	.dwattr $C$DW$115, DW_AT_decl_column(0x0e)

	.dwattr $C$DW$T$23, DW_AT_decl_file("H:/SVN/admont_demo/D8101A/40_Implementation/ADMONT 8101A Demo/driverlib/MSP430FR2xx_4xx/cs.h")
	.dwattr $C$DW$T$23, DW_AT_decl_line(0x3f)
	.dwattr $C$DW$T$23, DW_AT_decl_column(0x10)
	.dwendtag $C$DW$T$23

$C$DW$T$31	.dwtag  DW_TAG_typedef
	.dwattr $C$DW$T$31, DW_AT_name("CS_initFLLParam")
	.dwattr $C$DW$T$31, DW_AT_type(*$C$DW$T$23)
	.dwattr $C$DW$T$31, DW_AT_language(DW_LANG_C)
	.dwattr $C$DW$T$31, DW_AT_decl_file("H:/SVN/admont_demo/D8101A/40_Implementation/ADMONT 8101A Demo/driverlib/MSP430FR2xx_4xx/cs.h")
	.dwattr $C$DW$T$31, DW_AT_decl_line(0x47)
	.dwattr $C$DW$T$31, DW_AT_decl_column(0x03)


$C$DW$T$25	.dwtag  DW_TAG_structure_type
	.dwattr $C$DW$T$25, DW_AT_name("EUSCI_A_UART_initParam")
	.dwattr $C$DW$T$25, DW_AT_byte_size(0x10)
$C$DW$116	.dwtag  DW_TAG_member
	.dwattr $C$DW$116, DW_AT_type(*$C$DW$T$24)
	.dwattr $C$DW$116, DW_AT_name("selectClockSource")
	.dwattr $C$DW$116, DW_AT_TI_symbol_name("selectClockSource")
	.dwattr $C$DW$116, DW_AT_data_member_location[DW_OP_plus_uconst 0x0]
	.dwattr $C$DW$116, DW_AT_accessibility(DW_ACCESS_public)
	.dwattr $C$DW$116, DW_AT_decl_file("H:/SVN/admont_demo/D8101A/40_Implementation/ADMONT 8101A Demo/driverlib/MSP430FR2xx_4xx/eusci_a_uart.h")
	.dwattr $C$DW$116, DW_AT_decl_line(0x4f)
	.dwattr $C$DW$116, DW_AT_decl_column(0x0d)

$C$DW$117	.dwtag  DW_TAG_member
	.dwattr $C$DW$117, DW_AT_type(*$C$DW$T$22)
	.dwattr $C$DW$117, DW_AT_name("clockPrescalar")
	.dwattr $C$DW$117, DW_AT_TI_symbol_name("clockPrescalar")
	.dwattr $C$DW$117, DW_AT_data_member_location[DW_OP_plus_uconst 0x2]
	.dwattr $C$DW$117, DW_AT_accessibility(DW_ACCESS_public)
	.dwattr $C$DW$117, DW_AT_decl_file("H:/SVN/admont_demo/D8101A/40_Implementation/ADMONT 8101A Demo/driverlib/MSP430FR2xx_4xx/eusci_a_uart.h")
	.dwattr $C$DW$117, DW_AT_decl_line(0x51)
	.dwattr $C$DW$117, DW_AT_decl_column(0x0e)

$C$DW$118	.dwtag  DW_TAG_member
	.dwattr $C$DW$118, DW_AT_type(*$C$DW$T$24)
	.dwattr $C$DW$118, DW_AT_name("firstModReg")
	.dwattr $C$DW$118, DW_AT_TI_symbol_name("firstModReg")
	.dwattr $C$DW$118, DW_AT_data_member_location[DW_OP_plus_uconst 0x4]
	.dwattr $C$DW$118, DW_AT_accessibility(DW_ACCESS_public)
	.dwattr $C$DW$118, DW_AT_decl_file("H:/SVN/admont_demo/D8101A/40_Implementation/ADMONT 8101A Demo/driverlib/MSP430FR2xx_4xx/eusci_a_uart.h")
	.dwattr $C$DW$118, DW_AT_decl_line(0x55)
	.dwattr $C$DW$118, DW_AT_decl_column(0x0d)

$C$DW$119	.dwtag  DW_TAG_member
	.dwattr $C$DW$119, DW_AT_type(*$C$DW$T$24)
	.dwattr $C$DW$119, DW_AT_name("secondModReg")
	.dwattr $C$DW$119, DW_AT_TI_symbol_name("secondModReg")
	.dwattr $C$DW$119, DW_AT_data_member_location[DW_OP_plus_uconst 0x5]
	.dwattr $C$DW$119, DW_AT_accessibility(DW_ACCESS_public)
	.dwattr $C$DW$119, DW_AT_decl_file("H:/SVN/admont_demo/D8101A/40_Implementation/ADMONT 8101A Demo/driverlib/MSP430FR2xx_4xx/eusci_a_uart.h")
	.dwattr $C$DW$119, DW_AT_decl_line(0x59)
	.dwattr $C$DW$119, DW_AT_decl_column(0x0d)

$C$DW$120	.dwtag  DW_TAG_member
	.dwattr $C$DW$120, DW_AT_type(*$C$DW$T$24)
	.dwattr $C$DW$120, DW_AT_name("parity")
	.dwattr $C$DW$120, DW_AT_TI_symbol_name("parity")
	.dwattr $C$DW$120, DW_AT_data_member_location[DW_OP_plus_uconst 0x6]
	.dwattr $C$DW$120, DW_AT_accessibility(DW_ACCESS_public)
	.dwattr $C$DW$120, DW_AT_decl_file("H:/SVN/admont_demo/D8101A/40_Implementation/ADMONT 8101A Demo/driverlib/MSP430FR2xx_4xx/eusci_a_uart.h")
	.dwattr $C$DW$120, DW_AT_decl_line(0x5f)
	.dwattr $C$DW$120, DW_AT_decl_column(0x0d)

$C$DW$121	.dwtag  DW_TAG_member
	.dwattr $C$DW$121, DW_AT_type(*$C$DW$T$22)
	.dwattr $C$DW$121, DW_AT_name("msborLsbFirst")
	.dwattr $C$DW$121, DW_AT_TI_symbol_name("msborLsbFirst")
	.dwattr $C$DW$121, DW_AT_data_member_location[DW_OP_plus_uconst 0x8]
	.dwattr $C$DW$121, DW_AT_accessibility(DW_ACCESS_public)
	.dwattr $C$DW$121, DW_AT_decl_file("H:/SVN/admont_demo/D8101A/40_Implementation/ADMONT 8101A Demo/driverlib/MSP430FR2xx_4xx/eusci_a_uart.h")
	.dwattr $C$DW$121, DW_AT_decl_line(0x64)
	.dwattr $C$DW$121, DW_AT_decl_column(0x0e)

$C$DW$122	.dwtag  DW_TAG_member
	.dwattr $C$DW$122, DW_AT_type(*$C$DW$T$22)
	.dwattr $C$DW$122, DW_AT_name("numberofStopBits")
	.dwattr $C$DW$122, DW_AT_TI_symbol_name("numberofStopBits")
	.dwattr $C$DW$122, DW_AT_data_member_location[DW_OP_plus_uconst 0xa]
	.dwattr $C$DW$122, DW_AT_accessibility(DW_ACCESS_public)
	.dwattr $C$DW$122, DW_AT_decl_file("H:/SVN/admont_demo/D8101A/40_Implementation/ADMONT 8101A Demo/driverlib/MSP430FR2xx_4xx/eusci_a_uart.h")
	.dwattr $C$DW$122, DW_AT_decl_line(0x69)
	.dwattr $C$DW$122, DW_AT_decl_column(0x0e)

$C$DW$123	.dwtag  DW_TAG_member
	.dwattr $C$DW$123, DW_AT_type(*$C$DW$T$22)
	.dwattr $C$DW$123, DW_AT_name("uartMode")
	.dwattr $C$DW$123, DW_AT_TI_symbol_name("uartMode")
	.dwattr $C$DW$123, DW_AT_data_member_location[DW_OP_plus_uconst 0xc]
	.dwattr $C$DW$123, DW_AT_accessibility(DW_ACCESS_public)
	.dwattr $C$DW$123, DW_AT_decl_file("H:/SVN/admont_demo/D8101A/40_Implementation/ADMONT 8101A Demo/driverlib/MSP430FR2xx_4xx/eusci_a_uart.h")
	.dwattr $C$DW$123, DW_AT_decl_line(0x70)
	.dwattr $C$DW$123, DW_AT_decl_column(0x0e)

$C$DW$124	.dwtag  DW_TAG_member
	.dwattr $C$DW$124, DW_AT_type(*$C$DW$T$24)
	.dwattr $C$DW$124, DW_AT_name("overSampling")
	.dwattr $C$DW$124, DW_AT_TI_symbol_name("overSampling")
	.dwattr $C$DW$124, DW_AT_data_member_location[DW_OP_plus_uconst 0xe]
	.dwattr $C$DW$124, DW_AT_accessibility(DW_ACCESS_public)
	.dwattr $C$DW$124, DW_AT_decl_file("H:/SVN/admont_demo/D8101A/40_Implementation/ADMONT 8101A Demo/driverlib/MSP430FR2xx_4xx/eusci_a_uart.h")
	.dwattr $C$DW$124, DW_AT_decl_line(0x75)
	.dwattr $C$DW$124, DW_AT_decl_column(0x0d)

	.dwattr $C$DW$T$25, DW_AT_decl_file("H:/SVN/admont_demo/D8101A/40_Implementation/ADMONT 8101A Demo/driverlib/MSP430FR2xx_4xx/eusci_a_uart.h")
	.dwattr $C$DW$T$25, DW_AT_decl_line(0x46)
	.dwattr $C$DW$T$25, DW_AT_decl_column(0x10)
	.dwendtag $C$DW$T$25

$C$DW$T$32	.dwtag  DW_TAG_typedef
	.dwattr $C$DW$T$32, DW_AT_name("EUSCI_A_UART_initParam")
	.dwattr $C$DW$T$32, DW_AT_type(*$C$DW$T$25)
	.dwattr $C$DW$T$32, DW_AT_language(DW_LANG_C)
	.dwattr $C$DW$T$32, DW_AT_decl_file("H:/SVN/admont_demo/D8101A/40_Implementation/ADMONT 8101A Demo/driverlib/MSP430FR2xx_4xx/eusci_a_uart.h")
	.dwattr $C$DW$T$32, DW_AT_decl_line(0x76)
	.dwattr $C$DW$T$32, DW_AT_decl_column(0x03)

$C$DW$T$33	.dwtag  DW_TAG_const_type
	.dwattr $C$DW$T$33, DW_AT_type(*$C$DW$T$32)

$C$DW$T$34	.dwtag  DW_TAG_pointer_type
	.dwattr $C$DW$T$34, DW_AT_type(*$C$DW$T$32)
	.dwattr $C$DW$T$34, DW_AT_address_class(0x10)

$C$DW$T$2	.dwtag  DW_TAG_unspecified_type
	.dwattr $C$DW$T$2, DW_AT_name("void")


$C$DW$T$43	.dwtag  DW_TAG_subroutine_type
	.dwattr $C$DW$T$43, DW_AT_language(DW_LANG_C)
	.dwendtag $C$DW$T$43

$C$DW$T$44	.dwtag  DW_TAG_pointer_type
	.dwattr $C$DW$T$44, DW_AT_type(*$C$DW$T$43)
	.dwattr $C$DW$T$44, DW_AT_address_class(0x10)

$C$DW$T$45	.dwtag  DW_TAG_typedef
	.dwattr $C$DW$T$45, DW_AT_name("__TI_atexit_fn")
	.dwattr $C$DW$T$45, DW_AT_type(*$C$DW$T$44)
	.dwattr $C$DW$T$45, DW_AT_language(DW_LANG_C)
	.dwattr $C$DW$T$45, DW_AT_decl_file("C:/ti/ccsv6/tools/compiler/msp430_15.12.3.LTS/include/stdlib.h")
	.dwattr $C$DW$T$45, DW_AT_decl_line(0xa1)
	.dwattr $C$DW$T$45, DW_AT_decl_column(0x14)


$C$DW$T$54	.dwtag  DW_TAG_subroutine_type
	.dwattr $C$DW$T$54, DW_AT_language(DW_LANG_C)
	.dwendtag $C$DW$T$54

$C$DW$T$55	.dwtag  DW_TAG_pointer_type
	.dwattr $C$DW$T$55, DW_AT_type(*$C$DW$T$54)
	.dwattr $C$DW$T$55, DW_AT_address_class(0x10)

$C$DW$T$56	.dwtag  DW_TAG_typedef
	.dwattr $C$DW$T$56, DW_AT_name("__SFR_FARPTR")
	.dwattr $C$DW$T$56, DW_AT_type(*$C$DW$T$55)
	.dwattr $C$DW$T$56, DW_AT_language(DW_LANG_C)
	.dwattr $C$DW$T$56, DW_AT_decl_file("C:\ti\ccsv6\ccs_base\msp430\include\msp430fr4133.h")
	.dwattr $C$DW$T$56, DW_AT_decl_line(0x43)
	.dwattr $C$DW$T$56, DW_AT_decl_column(0x11)

$C$DW$T$57	.dwtag  DW_TAG_const_type
	.dwattr $C$DW$T$57, DW_AT_type(*$C$DW$T$2)

$C$DW$T$58	.dwtag  DW_TAG_pointer_type
	.dwattr $C$DW$T$58, DW_AT_type(*$C$DW$T$57)
	.dwattr $C$DW$T$58, DW_AT_address_class(0x10)

$C$DW$T$4	.dwtag  DW_TAG_base_type
	.dwattr $C$DW$T$4, DW_AT_encoding(DW_ATE_boolean)
	.dwattr $C$DW$T$4, DW_AT_name("bool")
	.dwattr $C$DW$T$4, DW_AT_byte_size(0x01)

$C$DW$T$5	.dwtag  DW_TAG_base_type
	.dwattr $C$DW$T$5, DW_AT_encoding(DW_ATE_signed_char)
	.dwattr $C$DW$T$5, DW_AT_name("signed char")
	.dwattr $C$DW$T$5, DW_AT_byte_size(0x01)

$C$DW$T$59	.dwtag  DW_TAG_typedef
	.dwattr $C$DW$T$59, DW_AT_name("int8_t")
	.dwattr $C$DW$T$59, DW_AT_type(*$C$DW$T$5)
	.dwattr $C$DW$T$59, DW_AT_language(DW_LANG_C)
	.dwattr $C$DW$T$59, DW_AT_decl_file("C:/ti/ccsv6/tools/compiler/msp430_15.12.3.LTS/include/stdint.h")
	.dwattr $C$DW$T$59, DW_AT_decl_line(0x2a)
	.dwattr $C$DW$T$59, DW_AT_decl_column(0x1e)

$C$DW$T$60	.dwtag  DW_TAG_typedef
	.dwattr $C$DW$T$60, DW_AT_name("int_least8_t")
	.dwattr $C$DW$T$60, DW_AT_type(*$C$DW$T$59)
	.dwattr $C$DW$T$60, DW_AT_language(DW_LANG_C)
	.dwattr $C$DW$T$60, DW_AT_decl_file("C:/ti/ccsv6/tools/compiler/msp430_15.12.3.LTS/include/stdint.h")
	.dwattr $C$DW$T$60, DW_AT_decl_line(0x37)
	.dwattr $C$DW$T$60, DW_AT_decl_column(0x17)

$C$DW$T$61	.dwtag  DW_TAG_typedef
	.dwattr $C$DW$T$61, DW_AT_name("s08_t")
	.dwattr $C$DW$T$61, DW_AT_type(*$C$DW$T$5)
	.dwattr $C$DW$T$61, DW_AT_language(DW_LANG_C)
	.dwattr $C$DW$T$61, DW_AT_decl_file("..\Hardware\types.h")
	.dwattr $C$DW$T$61, DW_AT_decl_line(0x30)
	.dwattr $C$DW$T$61, DW_AT_decl_column(0x15)

$C$DW$T$6	.dwtag  DW_TAG_base_type
	.dwattr $C$DW$T$6, DW_AT_encoding(DW_ATE_unsigned_char)
	.dwattr $C$DW$T$6, DW_AT_name("unsigned char")
	.dwattr $C$DW$T$6, DW_AT_byte_size(0x01)

$C$DW$T$62	.dwtag  DW_TAG_volatile_type
	.dwattr $C$DW$T$62, DW_AT_type(*$C$DW$T$6)

$C$DW$T$46	.dwtag  DW_TAG_typedef
	.dwattr $C$DW$T$46, DW_AT_name("u08_t")
	.dwattr $C$DW$T$46, DW_AT_type(*$C$DW$T$6)
	.dwattr $C$DW$T$46, DW_AT_language(DW_LANG_C)
	.dwattr $C$DW$T$46, DW_AT_decl_file("..\Hardware\types.h")
	.dwattr $C$DW$T$46, DW_AT_decl_line(0x2c)
	.dwattr $C$DW$T$46, DW_AT_decl_column(0x17)

$C$DW$T$49	.dwtag  DW_TAG_pointer_type
	.dwattr $C$DW$T$49, DW_AT_type(*$C$DW$T$46)
	.dwattr $C$DW$T$49, DW_AT_address_class(0x10)

$C$DW$T$73	.dwtag  DW_TAG_volatile_type
	.dwattr $C$DW$T$73, DW_AT_type(*$C$DW$T$46)

$C$DW$T$74	.dwtag  DW_TAG_const_type
	.dwattr $C$DW$T$74, DW_AT_type(*$C$DW$T$46)

$C$DW$T$24	.dwtag  DW_TAG_typedef
	.dwattr $C$DW$T$24, DW_AT_name("uint8_t")
	.dwattr $C$DW$T$24, DW_AT_type(*$C$DW$T$6)
	.dwattr $C$DW$T$24, DW_AT_language(DW_LANG_C)
	.dwattr $C$DW$T$24, DW_AT_decl_file("C:/ti/ccsv6/tools/compiler/msp430_15.12.3.LTS/include/stdint.h")
	.dwattr $C$DW$T$24, DW_AT_decl_line(0x2b)
	.dwattr $C$DW$T$24, DW_AT_decl_column(0x1d)

$C$DW$T$76	.dwtag  DW_TAG_typedef
	.dwattr $C$DW$T$76, DW_AT_name("uint_least8_t")
	.dwattr $C$DW$T$76, DW_AT_type(*$C$DW$T$24)
	.dwattr $C$DW$T$76, DW_AT_language(DW_LANG_C)
	.dwattr $C$DW$T$76, DW_AT_decl_file("C:/ti/ccsv6/tools/compiler/msp430_15.12.3.LTS/include/stdint.h")
	.dwattr $C$DW$T$76, DW_AT_decl_line(0x38)
	.dwattr $C$DW$T$76, DW_AT_decl_column(0x16)

$C$DW$T$7	.dwtag  DW_TAG_base_type
	.dwattr $C$DW$T$7, DW_AT_encoding(DW_ATE_signed_char)
	.dwattr $C$DW$T$7, DW_AT_name("wchar_t")
	.dwattr $C$DW$T$7, DW_AT_byte_size(0x02)

$C$DW$T$8	.dwtag  DW_TAG_base_type
	.dwattr $C$DW$T$8, DW_AT_encoding(DW_ATE_signed)
	.dwattr $C$DW$T$8, DW_AT_name("short")
	.dwattr $C$DW$T$8, DW_AT_byte_size(0x02)

$C$DW$T$77	.dwtag  DW_TAG_typedef
	.dwattr $C$DW$T$77, DW_AT_name("s16_t")
	.dwattr $C$DW$T$77, DW_AT_type(*$C$DW$T$8)
	.dwattr $C$DW$T$77, DW_AT_language(DW_LANG_C)
	.dwattr $C$DW$T$77, DW_AT_decl_file("..\Hardware\types.h")
	.dwattr $C$DW$T$77, DW_AT_decl_line(0x31)
	.dwattr $C$DW$T$77, DW_AT_decl_column(0x16)

$C$DW$T$9	.dwtag  DW_TAG_base_type
	.dwattr $C$DW$T$9, DW_AT_encoding(DW_ATE_unsigned)
	.dwattr $C$DW$T$9, DW_AT_name("unsigned short")
	.dwattr $C$DW$T$9, DW_AT_byte_size(0x02)

$C$DW$T$78	.dwtag  DW_TAG_typedef
	.dwattr $C$DW$T$78, DW_AT_name("u16_t")
	.dwattr $C$DW$T$78, DW_AT_type(*$C$DW$T$9)
	.dwattr $C$DW$T$78, DW_AT_language(DW_LANG_C)
	.dwattr $C$DW$T$78, DW_AT_decl_file("..\Hardware\types.h")
	.dwattr $C$DW$T$78, DW_AT_decl_line(0x2d)
	.dwattr $C$DW$T$78, DW_AT_decl_column(0x18)

$C$DW$T$10	.dwtag  DW_TAG_base_type
	.dwattr $C$DW$T$10, DW_AT_encoding(DW_ATE_signed)
	.dwattr $C$DW$T$10, DW_AT_name("int")
	.dwattr $C$DW$T$10, DW_AT_byte_size(0x02)


$C$DW$T$79	.dwtag  DW_TAG_subroutine_type
	.dwattr $C$DW$T$79, DW_AT_type(*$C$DW$T$10)
	.dwattr $C$DW$T$79, DW_AT_language(DW_LANG_C)
$C$DW$125	.dwtag  DW_TAG_formal_parameter
	.dwattr $C$DW$125, DW_AT_type(*$C$DW$T$58)

$C$DW$126	.dwtag  DW_TAG_formal_parameter
	.dwattr $C$DW$126, DW_AT_type(*$C$DW$T$58)

	.dwendtag $C$DW$T$79

$C$DW$T$80	.dwtag  DW_TAG_pointer_type
	.dwattr $C$DW$T$80, DW_AT_type(*$C$DW$T$79)
	.dwattr $C$DW$T$80, DW_AT_address_class(0x10)

$C$DW$T$81	.dwtag  DW_TAG_typedef
	.dwattr $C$DW$T$81, DW_AT_name("__TI_compar_fn")
	.dwattr $C$DW$T$81, DW_AT_type(*$C$DW$T$80)
	.dwattr $C$DW$T$81, DW_AT_language(DW_LANG_C)
	.dwattr $C$DW$T$81, DW_AT_decl_file("C:/ti/ccsv6/tools/compiler/msp430_15.12.3.LTS/include/stdlib.h")
	.dwattr $C$DW$T$81, DW_AT_decl_line(0xa4)
	.dwattr $C$DW$T$81, DW_AT_decl_column(0x13)

$C$DW$T$82	.dwtag  DW_TAG_typedef
	.dwattr $C$DW$T$82, DW_AT_name("int16_t")
	.dwattr $C$DW$T$82, DW_AT_type(*$C$DW$T$10)
	.dwattr $C$DW$T$82, DW_AT_language(DW_LANG_C)
	.dwattr $C$DW$T$82, DW_AT_decl_file("C:/ti/ccsv6/tools/compiler/msp430_15.12.3.LTS/include/stdint.h")
	.dwattr $C$DW$T$82, DW_AT_decl_line(0x2c)
	.dwattr $C$DW$T$82, DW_AT_decl_column(0x1d)

$C$DW$T$83	.dwtag  DW_TAG_typedef
	.dwattr $C$DW$T$83, DW_AT_name("int_fast16_t")
	.dwattr $C$DW$T$83, DW_AT_type(*$C$DW$T$82)
	.dwattr $C$DW$T$83, DW_AT_language(DW_LANG_C)
	.dwattr $C$DW$T$83, DW_AT_decl_file("C:/ti/ccsv6/tools/compiler/msp430_15.12.3.LTS/include/stdint.h")
	.dwattr $C$DW$T$83, DW_AT_decl_line(0x47)
	.dwattr $C$DW$T$83, DW_AT_decl_column(0x17)

$C$DW$T$84	.dwtag  DW_TAG_typedef
	.dwattr $C$DW$T$84, DW_AT_name("int_fast8_t")
	.dwattr $C$DW$T$84, DW_AT_type(*$C$DW$T$82)
	.dwattr $C$DW$T$84, DW_AT_language(DW_LANG_C)
	.dwattr $C$DW$T$84, DW_AT_decl_file("C:/ti/ccsv6/tools/compiler/msp430_15.12.3.LTS/include/stdint.h")
	.dwattr $C$DW$T$84, DW_AT_decl_line(0x45)
	.dwattr $C$DW$T$84, DW_AT_decl_column(0x17)

$C$DW$T$85	.dwtag  DW_TAG_typedef
	.dwattr $C$DW$T$85, DW_AT_name("int_least16_t")
	.dwattr $C$DW$T$85, DW_AT_type(*$C$DW$T$82)
	.dwattr $C$DW$T$85, DW_AT_language(DW_LANG_C)
	.dwattr $C$DW$T$85, DW_AT_decl_file("C:/ti/ccsv6/tools/compiler/msp430_15.12.3.LTS/include/stdint.h")
	.dwattr $C$DW$T$85, DW_AT_decl_line(0x3a)
	.dwattr $C$DW$T$85, DW_AT_decl_column(0x17)

$C$DW$T$86	.dwtag  DW_TAG_typedef
	.dwattr $C$DW$T$86, DW_AT_name("intptr_t")
	.dwattr $C$DW$T$86, DW_AT_type(*$C$DW$T$10)
	.dwattr $C$DW$T$86, DW_AT_language(DW_LANG_C)
	.dwattr $C$DW$T$86, DW_AT_decl_file("C:/ti/ccsv6/tools/compiler/msp430_15.12.3.LTS/include/stdint.h")
	.dwattr $C$DW$T$86, DW_AT_decl_line(0x58)
	.dwattr $C$DW$T$86, DW_AT_decl_column(0x1a)

$C$DW$T$11	.dwtag  DW_TAG_base_type
	.dwattr $C$DW$T$11, DW_AT_encoding(DW_ATE_unsigned)
	.dwattr $C$DW$T$11, DW_AT_name("unsigned int")
	.dwattr $C$DW$T$11, DW_AT_byte_size(0x02)

$C$DW$T$87	.dwtag  DW_TAG_volatile_type
	.dwattr $C$DW$T$87, DW_AT_type(*$C$DW$T$11)

$C$DW$T$88	.dwtag  DW_TAG_typedef
	.dwattr $C$DW$T$88, DW_AT_name("size_t")
	.dwattr $C$DW$T$88, DW_AT_type(*$C$DW$T$11)
	.dwattr $C$DW$T$88, DW_AT_language(DW_LANG_C)
	.dwattr $C$DW$T$88, DW_AT_decl_file("C:/ti/ccsv6/tools/compiler/msp430_15.12.3.LTS/include/stdlib.h")
	.dwattr $C$DW$T$88, DW_AT_decl_line(0x5a)
	.dwattr $C$DW$T$88, DW_AT_decl_column(0x19)

$C$DW$T$22	.dwtag  DW_TAG_typedef
	.dwattr $C$DW$T$22, DW_AT_name("uint16_t")
	.dwattr $C$DW$T$22, DW_AT_type(*$C$DW$T$11)
	.dwattr $C$DW$T$22, DW_AT_language(DW_LANG_C)
	.dwattr $C$DW$T$22, DW_AT_decl_file("C:/ti/ccsv6/tools/compiler/msp430_15.12.3.LTS/include/stdint.h")
	.dwattr $C$DW$T$22, DW_AT_decl_line(0x2d)
	.dwattr $C$DW$T$22, DW_AT_decl_column(0x1c)

$C$DW$T$89	.dwtag  DW_TAG_typedef
	.dwattr $C$DW$T$89, DW_AT_name("uint_fast16_t")
	.dwattr $C$DW$T$89, DW_AT_type(*$C$DW$T$22)
	.dwattr $C$DW$T$89, DW_AT_language(DW_LANG_C)
	.dwattr $C$DW$T$89, DW_AT_decl_file("C:/ti/ccsv6/tools/compiler/msp430_15.12.3.LTS/include/stdint.h")
	.dwattr $C$DW$T$89, DW_AT_decl_line(0x48)
	.dwattr $C$DW$T$89, DW_AT_decl_column(0x16)

$C$DW$T$90	.dwtag  DW_TAG_typedef
	.dwattr $C$DW$T$90, DW_AT_name("uint_fast8_t")
	.dwattr $C$DW$T$90, DW_AT_type(*$C$DW$T$22)
	.dwattr $C$DW$T$90, DW_AT_language(DW_LANG_C)
	.dwattr $C$DW$T$90, DW_AT_decl_file("C:/ti/ccsv6/tools/compiler/msp430_15.12.3.LTS/include/stdint.h")
	.dwattr $C$DW$T$90, DW_AT_decl_line(0x46)
	.dwattr $C$DW$T$90, DW_AT_decl_column(0x16)

$C$DW$T$91	.dwtag  DW_TAG_typedef
	.dwattr $C$DW$T$91, DW_AT_name("uint_least16_t")
	.dwattr $C$DW$T$91, DW_AT_type(*$C$DW$T$22)
	.dwattr $C$DW$T$91, DW_AT_language(DW_LANG_C)
	.dwattr $C$DW$T$91, DW_AT_decl_file("C:/ti/ccsv6/tools/compiler/msp430_15.12.3.LTS/include/stdint.h")
	.dwattr $C$DW$T$91, DW_AT_decl_line(0x3b)
	.dwattr $C$DW$T$91, DW_AT_decl_column(0x16)

$C$DW$T$92	.dwtag  DW_TAG_typedef
	.dwattr $C$DW$T$92, DW_AT_name("uintptr_t")
	.dwattr $C$DW$T$92, DW_AT_type(*$C$DW$T$11)
	.dwattr $C$DW$T$92, DW_AT_language(DW_LANG_C)
	.dwattr $C$DW$T$92, DW_AT_decl_file("C:/ti/ccsv6/tools/compiler/msp430_15.12.3.LTS/include/stdint.h")
	.dwattr $C$DW$T$92, DW_AT_decl_line(0x59)
	.dwattr $C$DW$T$92, DW_AT_decl_column(0x1a)

$C$DW$T$93	.dwtag  DW_TAG_typedef
	.dwattr $C$DW$T$93, DW_AT_name("wchar_t")
	.dwattr $C$DW$T$93, DW_AT_type(*$C$DW$T$11)
	.dwattr $C$DW$T$93, DW_AT_language(DW_LANG_C)
	.dwattr $C$DW$T$93, DW_AT_decl_file("C:/ti/ccsv6/tools/compiler/msp430_15.12.3.LTS/include/stdlib.h")
	.dwattr $C$DW$T$93, DW_AT_decl_line(0x60)
	.dwattr $C$DW$T$93, DW_AT_decl_column(0x1a)

$C$DW$T$12	.dwtag  DW_TAG_base_type
	.dwattr $C$DW$T$12, DW_AT_encoding(DW_ATE_signed)
	.dwattr $C$DW$T$12, DW_AT_name("long")
	.dwattr $C$DW$T$12, DW_AT_byte_size(0x04)

$C$DW$T$94	.dwtag  DW_TAG_typedef
	.dwattr $C$DW$T$94, DW_AT_name("int32_t")
	.dwattr $C$DW$T$94, DW_AT_type(*$C$DW$T$12)
	.dwattr $C$DW$T$94, DW_AT_language(DW_LANG_C)
	.dwattr $C$DW$T$94, DW_AT_decl_file("C:/ti/ccsv6/tools/compiler/msp430_15.12.3.LTS/include/stdint.h")
	.dwattr $C$DW$T$94, DW_AT_decl_line(0x2e)
	.dwattr $C$DW$T$94, DW_AT_decl_column(0x1d)

$C$DW$T$95	.dwtag  DW_TAG_typedef
	.dwattr $C$DW$T$95, DW_AT_name("int_fast32_t")
	.dwattr $C$DW$T$95, DW_AT_type(*$C$DW$T$94)
	.dwattr $C$DW$T$95, DW_AT_language(DW_LANG_C)
	.dwattr $C$DW$T$95, DW_AT_decl_file("C:/ti/ccsv6/tools/compiler/msp430_15.12.3.LTS/include/stdint.h")
	.dwattr $C$DW$T$95, DW_AT_decl_line(0x4a)
	.dwattr $C$DW$T$95, DW_AT_decl_column(0x17)

$C$DW$T$96	.dwtag  DW_TAG_typedef
	.dwattr $C$DW$T$96, DW_AT_name("int_least32_t")
	.dwattr $C$DW$T$96, DW_AT_type(*$C$DW$T$94)
	.dwattr $C$DW$T$96, DW_AT_language(DW_LANG_C)
	.dwattr $C$DW$T$96, DW_AT_decl_file("C:/ti/ccsv6/tools/compiler/msp430_15.12.3.LTS/include/stdint.h")
	.dwattr $C$DW$T$96, DW_AT_decl_line(0x3c)
	.dwattr $C$DW$T$96, DW_AT_decl_column(0x17)

$C$DW$T$97	.dwtag  DW_TAG_typedef
	.dwattr $C$DW$T$97, DW_AT_name("s32_t")
	.dwattr $C$DW$T$97, DW_AT_type(*$C$DW$T$12)
	.dwattr $C$DW$T$97, DW_AT_language(DW_LANG_C)
	.dwattr $C$DW$T$97, DW_AT_decl_file("..\Hardware\types.h")
	.dwattr $C$DW$T$97, DW_AT_decl_line(0x32)
	.dwattr $C$DW$T$97, DW_AT_decl_column(0x15)

$C$DW$T$13	.dwtag  DW_TAG_base_type
	.dwattr $C$DW$T$13, DW_AT_encoding(DW_ATE_unsigned)
	.dwattr $C$DW$T$13, DW_AT_name("unsigned long")
	.dwattr $C$DW$T$13, DW_AT_byte_size(0x04)

$C$DW$T$98	.dwtag  DW_TAG_typedef
	.dwattr $C$DW$T$98, DW_AT_name("u32_t")
	.dwattr $C$DW$T$98, DW_AT_type(*$C$DW$T$13)
	.dwattr $C$DW$T$98, DW_AT_language(DW_LANG_C)
	.dwattr $C$DW$T$98, DW_AT_decl_file("..\Hardware\types.h")
	.dwattr $C$DW$T$98, DW_AT_decl_line(0x2e)
	.dwattr $C$DW$T$98, DW_AT_decl_column(0x17)

$C$DW$T$99	.dwtag  DW_TAG_typedef
	.dwattr $C$DW$T$99, DW_AT_name("uint32_t")
	.dwattr $C$DW$T$99, DW_AT_type(*$C$DW$T$13)
	.dwattr $C$DW$T$99, DW_AT_language(DW_LANG_C)
	.dwattr $C$DW$T$99, DW_AT_decl_file("C:/ti/ccsv6/tools/compiler/msp430_15.12.3.LTS/include/stdint.h")
	.dwattr $C$DW$T$99, DW_AT_decl_line(0x2f)
	.dwattr $C$DW$T$99, DW_AT_decl_column(0x1c)

$C$DW$T$100	.dwtag  DW_TAG_typedef
	.dwattr $C$DW$T$100, DW_AT_name("uint_fast32_t")
	.dwattr $C$DW$T$100, DW_AT_type(*$C$DW$T$99)
	.dwattr $C$DW$T$100, DW_AT_language(DW_LANG_C)
	.dwattr $C$DW$T$100, DW_AT_decl_file("C:/ti/ccsv6/tools/compiler/msp430_15.12.3.LTS/include/stdint.h")
	.dwattr $C$DW$T$100, DW_AT_decl_line(0x4b)
	.dwattr $C$DW$T$100, DW_AT_decl_column(0x16)

$C$DW$T$101	.dwtag  DW_TAG_typedef
	.dwattr $C$DW$T$101, DW_AT_name("uint_least32_t")
	.dwattr $C$DW$T$101, DW_AT_type(*$C$DW$T$99)
	.dwattr $C$DW$T$101, DW_AT_language(DW_LANG_C)
	.dwattr $C$DW$T$101, DW_AT_decl_file("C:/ti/ccsv6/tools/compiler/msp430_15.12.3.LTS/include/stdint.h")
	.dwattr $C$DW$T$101, DW_AT_decl_line(0x3d)
	.dwattr $C$DW$T$101, DW_AT_decl_column(0x16)

$C$DW$T$14	.dwtag  DW_TAG_base_type
	.dwattr $C$DW$T$14, DW_AT_encoding(DW_ATE_signed)
	.dwattr $C$DW$T$14, DW_AT_name("long long")
	.dwattr $C$DW$T$14, DW_AT_byte_size(0x08)

$C$DW$T$102	.dwtag  DW_TAG_typedef
	.dwattr $C$DW$T$102, DW_AT_name("int64_t")
	.dwattr $C$DW$T$102, DW_AT_type(*$C$DW$T$14)
	.dwattr $C$DW$T$102, DW_AT_language(DW_LANG_C)
	.dwattr $C$DW$T$102, DW_AT_decl_file("C:/ti/ccsv6/tools/compiler/msp430_15.12.3.LTS/include/stdint.h")
	.dwattr $C$DW$T$102, DW_AT_decl_line(0x32)
	.dwattr $C$DW$T$102, DW_AT_decl_column(0x21)

$C$DW$T$103	.dwtag  DW_TAG_typedef
	.dwattr $C$DW$T$103, DW_AT_name("int_fast64_t")
	.dwattr $C$DW$T$103, DW_AT_type(*$C$DW$T$102)
	.dwattr $C$DW$T$103, DW_AT_language(DW_LANG_C)
	.dwattr $C$DW$T$103, DW_AT_decl_file("C:/ti/ccsv6/tools/compiler/msp430_15.12.3.LTS/include/stdint.h")
	.dwattr $C$DW$T$103, DW_AT_decl_line(0x4e)
	.dwattr $C$DW$T$103, DW_AT_decl_column(0x17)

$C$DW$T$104	.dwtag  DW_TAG_typedef
	.dwattr $C$DW$T$104, DW_AT_name("int_least64_t")
	.dwattr $C$DW$T$104, DW_AT_type(*$C$DW$T$102)
	.dwattr $C$DW$T$104, DW_AT_language(DW_LANG_C)
	.dwattr $C$DW$T$104, DW_AT_decl_file("C:/ti/ccsv6/tools/compiler/msp430_15.12.3.LTS/include/stdint.h")
	.dwattr $C$DW$T$104, DW_AT_decl_line(0x40)
	.dwattr $C$DW$T$104, DW_AT_decl_column(0x17)

$C$DW$T$105	.dwtag  DW_TAG_typedef
	.dwattr $C$DW$T$105, DW_AT_name("intmax_t")
	.dwattr $C$DW$T$105, DW_AT_type(*$C$DW$T$14)
	.dwattr $C$DW$T$105, DW_AT_language(DW_LANG_C)
	.dwattr $C$DW$T$105, DW_AT_decl_file("C:/ti/ccsv6/tools/compiler/msp430_15.12.3.LTS/include/stdint.h")
	.dwattr $C$DW$T$105, DW_AT_decl_line(0x5d)
	.dwattr $C$DW$T$105, DW_AT_decl_column(0x20)

$C$DW$T$15	.dwtag  DW_TAG_base_type
	.dwattr $C$DW$T$15, DW_AT_encoding(DW_ATE_unsigned)
	.dwattr $C$DW$T$15, DW_AT_name("unsigned long long")
	.dwattr $C$DW$T$15, DW_AT_byte_size(0x08)

$C$DW$T$106	.dwtag  DW_TAG_typedef
	.dwattr $C$DW$T$106, DW_AT_name("uint64_t")
	.dwattr $C$DW$T$106, DW_AT_type(*$C$DW$T$15)
	.dwattr $C$DW$T$106, DW_AT_language(DW_LANG_C)
	.dwattr $C$DW$T$106, DW_AT_decl_file("C:/ti/ccsv6/tools/compiler/msp430_15.12.3.LTS/include/stdint.h")
	.dwattr $C$DW$T$106, DW_AT_decl_line(0x33)
	.dwattr $C$DW$T$106, DW_AT_decl_column(0x20)

$C$DW$T$107	.dwtag  DW_TAG_typedef
	.dwattr $C$DW$T$107, DW_AT_name("uint_fast64_t")
	.dwattr $C$DW$T$107, DW_AT_type(*$C$DW$T$106)
	.dwattr $C$DW$T$107, DW_AT_language(DW_LANG_C)
	.dwattr $C$DW$T$107, DW_AT_decl_file("C:/ti/ccsv6/tools/compiler/msp430_15.12.3.LTS/include/stdint.h")
	.dwattr $C$DW$T$107, DW_AT_decl_line(0x4f)
	.dwattr $C$DW$T$107, DW_AT_decl_column(0x16)

$C$DW$T$108	.dwtag  DW_TAG_typedef
	.dwattr $C$DW$T$108, DW_AT_name("uint_least64_t")
	.dwattr $C$DW$T$108, DW_AT_type(*$C$DW$T$106)
	.dwattr $C$DW$T$108, DW_AT_language(DW_LANG_C)
	.dwattr $C$DW$T$108, DW_AT_decl_file("C:/ti/ccsv6/tools/compiler/msp430_15.12.3.LTS/include/stdint.h")
	.dwattr $C$DW$T$108, DW_AT_decl_line(0x41)
	.dwattr $C$DW$T$108, DW_AT_decl_column(0x16)

$C$DW$T$109	.dwtag  DW_TAG_typedef
	.dwattr $C$DW$T$109, DW_AT_name("uintmax_t")
	.dwattr $C$DW$T$109, DW_AT_type(*$C$DW$T$15)
	.dwattr $C$DW$T$109, DW_AT_language(DW_LANG_C)
	.dwattr $C$DW$T$109, DW_AT_decl_file("C:/ti/ccsv6/tools/compiler/msp430_15.12.3.LTS/include/stdint.h")
	.dwattr $C$DW$T$109, DW_AT_decl_line(0x5e)
	.dwattr $C$DW$T$109, DW_AT_decl_column(0x20)

$C$DW$T$16	.dwtag  DW_TAG_base_type
	.dwattr $C$DW$T$16, DW_AT_encoding(DW_ATE_float)
	.dwattr $C$DW$T$16, DW_AT_name("float")
	.dwattr $C$DW$T$16, DW_AT_byte_size(0x04)

$C$DW$T$17	.dwtag  DW_TAG_base_type
	.dwattr $C$DW$T$17, DW_AT_encoding(DW_ATE_float)
	.dwattr $C$DW$T$17, DW_AT_name("double")
	.dwattr $C$DW$T$17, DW_AT_byte_size(0x08)

$C$DW$T$18	.dwtag  DW_TAG_base_type
	.dwattr $C$DW$T$18, DW_AT_encoding(DW_ATE_float)
	.dwattr $C$DW$T$18, DW_AT_name("long double")
	.dwattr $C$DW$T$18, DW_AT_byte_size(0x08)

$C$DW$T$52	.dwtag  DW_TAG_pointer_type
	.dwattr $C$DW$T$52, DW_AT_type(*$C$DW$T$6)
	.dwattr $C$DW$T$52, DW_AT_address_class(0x10)


$C$DW$T$110	.dwtag  DW_TAG_array_type
	.dwattr $C$DW$T$110, DW_AT_type(*$C$DW$T$6)
	.dwattr $C$DW$T$110, DW_AT_language(DW_LANG_C)
	.dwattr $C$DW$T$110, DW_AT_byte_size(0x33)
$C$DW$127	.dwtag  DW_TAG_subrange_type
	.dwattr $C$DW$127, DW_AT_upper_bound(0x32)

	.dwendtag $C$DW$T$110

$C$DW$T$111	.dwtag  DW_TAG_base_type
	.dwattr $C$DW$T$111, DW_AT_encoding(DW_ATE_unsigned_char)
	.dwattr $C$DW$T$111, DW_AT_name("unsigned char")
	.dwattr $C$DW$T$111, DW_AT_byte_size(0x01)

	.dwattr $C$DW$CU, DW_AT_language(DW_LANG_C)

;***************************************************************
;* DWARF CIE ENTRIES                                           *
;***************************************************************

$C$DW$CIE	.dwcie 16
	.dwcfi	cfa_register, 1
	.dwcfi	cfa_offset, 0
	.dwcfi	same_value, 0
	.dwcfi	same_value, 1
	.dwcfi	undefined, 2
	.dwcfi	same_value, 3
	.dwcfi	same_value, 4
	.dwcfi	same_value, 5
	.dwcfi	same_value, 6
	.dwcfi	same_value, 7
	.dwcfi	same_value, 8
	.dwcfi	same_value, 9
	.dwcfi	same_value, 10
	.dwcfi	undefined, 11
	.dwcfi	undefined, 12
	.dwcfi	undefined, 13
	.dwcfi	undefined, 14
	.dwcfi	undefined, 15
	.dwcfi	undefined, 16
	.dwendentry

;***************************************************************
;* DWARF REGISTER MAP                                          *
;***************************************************************

$C$DW$128	.dwtag  DW_TAG_TI_assign_register
	.dwattr $C$DW$128, DW_AT_name("PC")
	.dwattr $C$DW$128, DW_AT_location[DW_OP_reg0]

$C$DW$129	.dwtag  DW_TAG_TI_assign_register
	.dwattr $C$DW$129, DW_AT_name("SP")
	.dwattr $C$DW$129, DW_AT_location[DW_OP_reg1]

$C$DW$130	.dwtag  DW_TAG_TI_assign_register
	.dwattr $C$DW$130, DW_AT_name("SR")
	.dwattr $C$DW$130, DW_AT_location[DW_OP_reg2]

$C$DW$131	.dwtag  DW_TAG_TI_assign_register
	.dwattr $C$DW$131, DW_AT_name("CG")
	.dwattr $C$DW$131, DW_AT_location[DW_OP_reg3]

$C$DW$132	.dwtag  DW_TAG_TI_assign_register
	.dwattr $C$DW$132, DW_AT_name("r4")
	.dwattr $C$DW$132, DW_AT_location[DW_OP_reg4]

$C$DW$133	.dwtag  DW_TAG_TI_assign_register
	.dwattr $C$DW$133, DW_AT_name("r5")
	.dwattr $C$DW$133, DW_AT_location[DW_OP_reg5]

$C$DW$134	.dwtag  DW_TAG_TI_assign_register
	.dwattr $C$DW$134, DW_AT_name("r6")
	.dwattr $C$DW$134, DW_AT_location[DW_OP_reg6]

$C$DW$135	.dwtag  DW_TAG_TI_assign_register
	.dwattr $C$DW$135, DW_AT_name("r7")
	.dwattr $C$DW$135, DW_AT_location[DW_OP_reg7]

$C$DW$136	.dwtag  DW_TAG_TI_assign_register
	.dwattr $C$DW$136, DW_AT_name("r8")
	.dwattr $C$DW$136, DW_AT_location[DW_OP_reg8]

$C$DW$137	.dwtag  DW_TAG_TI_assign_register
	.dwattr $C$DW$137, DW_AT_name("r9")
	.dwattr $C$DW$137, DW_AT_location[DW_OP_reg9]

$C$DW$138	.dwtag  DW_TAG_TI_assign_register
	.dwattr $C$DW$138, DW_AT_name("r10")
	.dwattr $C$DW$138, DW_AT_location[DW_OP_reg10]

$C$DW$139	.dwtag  DW_TAG_TI_assign_register
	.dwattr $C$DW$139, DW_AT_name("r11")
	.dwattr $C$DW$139, DW_AT_location[DW_OP_reg11]

$C$DW$140	.dwtag  DW_TAG_TI_assign_register
	.dwattr $C$DW$140, DW_AT_name("r12")
	.dwattr $C$DW$140, DW_AT_location[DW_OP_reg12]

$C$DW$141	.dwtag  DW_TAG_TI_assign_register
	.dwattr $C$DW$141, DW_AT_name("r13")
	.dwattr $C$DW$141, DW_AT_location[DW_OP_reg13]

$C$DW$142	.dwtag  DW_TAG_TI_assign_register
	.dwattr $C$DW$142, DW_AT_name("r14")
	.dwattr $C$DW$142, DW_AT_location[DW_OP_reg14]

$C$DW$143	.dwtag  DW_TAG_TI_assign_register
	.dwattr $C$DW$143, DW_AT_name("r15")
	.dwattr $C$DW$143, DW_AT_location[DW_OP_reg15]

$C$DW$144	.dwtag  DW_TAG_TI_assign_register
	.dwattr $C$DW$144, DW_AT_name("CIE_RETA")
	.dwattr $C$DW$144, DW_AT_location[DW_OP_reg16]

	.dwendtag $C$DW$CU

